

Microchip MPLAB XC8 Assembler V3.10 build 20250813170317 
                                                                                               Thu Jun  4 16:46:20 2026

Microchip MPLAB XC8 C Compiler v3.10 (Free license) build 20250813170317 Og1 
     1                           	processor	16F877A
     2                           	pagewidth 120
     3                           	opt	flic
     4                           	psect	idataBANK0,global,class=CODE,space=0,delta=2,noexec
     5                           	psect	cinit,global,class=CODE,space=0,merge=1,delta=2
     6                           	psect	dataBANK0,global,class=BANK0,space=1,delta=1,noexec
     7                           	psect	bssBANK1,global,class=BANK1,space=1,delta=1,noexec
     8                           	psect	cstackCOMMON,global,class=COMMON,space=1,delta=1,noexec
     9                           	psect	cstackBANK0,global,class=BANK0,space=1,delta=1,noexec
    10                           	psect	maintext,global,class=CODE,space=0,split=1,delta=2
    11                           	psect	text1,local,class=CODE,space=0,merge=1,delta=2
    12                           	psect	text2,local,class=CODE,space=0,merge=1,delta=2
    13                           	psect	text3,local,class=CODE,space=0,merge=1,delta=2
    14                           	psect	text4,local,class=CODE,space=0,merge=1,delta=2,group=1
    15                           	psect	text5,local,class=CODE,space=0,merge=1,delta=2,group=1
    16                           	psect	text6,local,class=CODE,space=0,merge=1,delta=2,group=1
    17                           	psect	text7,local,class=CODE,space=0,merge=1,delta=2,group=1
    18                           	psect	text8,local,class=CODE,space=0,merge=1,delta=2,group=1
    19                           	psect	text9,local,class=CODE,space=0,merge=1,delta=2
    20                           	psect	text10,local,class=CODE,space=0,merge=1,delta=2
    21                           	psect	text11,local,class=CODE,space=0,merge=1,delta=2
    22                           	psect	idloc,global,abs,ovrld,class=IDLOC,space=5,delta=2,noexec
    23                           	psect	config,global,abs,ovrld,class=CONFIG,space=4,delta=2,noexec
    24                           	dabs	1,0x7E,2
    25     0000                     
    26                           ; Version 2.20
    27                           ; Generated 12/02/2020 GMT
    28                           ; 
    29                           ; Copyright © 2020, Microchip Technology Inc. and its subsidiaries ("Microchip")
    30                           ; All rights reserved.
    31                           ; 
    32                           ; This software is developed by Microchip Technology Inc. and its subsidiaries ("Microch
      +                          ip").
    33                           ; 
    34                           ; Redistribution and use in source and binary forms, with or without modification, are
    35                           ; permitted provided that the following conditions are met:
    36                           ; 
    37                           ;     1. Redistributions of source code must retain the above copyright notice, this lis
      +                          t of
    38                           ;        conditions and the following disclaimer.
    39                           ; 
    40                           ;     2. Redistributions in binary form must reproduce the above copyright notice, this 
      +                          list
    41                           ;        of conditions and the following disclaimer in the documentation and/or other
    42                           ;        materials provided with the distribution.
    43                           ; 
    44                           ;     3. Microchip's name may not be used to endorse or promote products derived from th
      +                          is
    45                           ;        software without specific prior written permission.
    46                           ; 
    47                           ; THIS SOFTWARE IS PROVIDED BY MICROCHIP "AS IS" AND ANY EXPRESS OR IMPLIED WARRANTIES,
    48                           ; INCLUDING, BUT NOT LIMITED TO, THE IMPLIED WARRANTIES OF MERCHANTABILITY AND FITNESS F
      +                          OR
    49                           ; PURPOSE ARE DISCLAIMED.  IN NO EVENT SHALL MICROCHIP BE LIABLE FOR ANY DIRECT, INDIREC
      +                          T,
    50                           ; INCIDENTAL, SPECIAL, EXEMPLARY, OR CONSEQUENTIAL DAMAGES (INCLUDING BUT NOT LIMITED TO
    51                           ; PROCUREMENT OF SUBSTITUTE GOODS OR SERVICES; LOSS OF USE, DATA OR PROFITS; OR BUSINESS
    52                           ; INTERRUPTION) HOWSOEVER CAUSED AND ON ANY THEORY OF LIABILITY, WHETHER IN CONTRACT, ST
      +                          RICT
    53                           ; LIABILITY, OR TORT (INCLUDING NEGLIGENCE OR OTHERWISE) ARISING IN ANY WAY OUT OF THE U
      +                          SE OF
    54                           ; THIS SOFTWARE, EVEN IF ADVISED OF THE POSSIBILITY OF SUCH DAMAGE.
    55                           ; 
    56                           ; 
    57                           ; Code-generator required, PIC16F877A Definitions
    58                           ; 
    59                           ; SFR Addresses
    60     0004                     fsr             equ	4
    61     0004                     fsr0            equ	4
    62     0000                     indf            equ	0
    63     0000                     indf0           equ	0
    64     0002                     pc              equ	2
    65     0002                     pcl             equ	2
    66     000A                     pclath          equ	10
    67     0003                     status          equ	3
    68     0000                     INDF            equ	0	;# 
    69     0001                     TMR0            equ	1	;# 
    70     0002                     PCL             equ	2	;# 
    71     0003                     STATUS          equ	3	;# 
    72     0004                     FSR             equ	4	;# 
    73     0005                     PORTA           equ	5	;# 
    74     0006                     PORTB           equ	6	;# 
    75     0007                     PORTC           equ	7	;# 
    76     0008                     PORTD           equ	8	;# 
    77     0009                     PORTE           equ	9	;# 
    78     000A                     PCLATH          equ	10	;# 
    79     000B                     INTCON          equ	11	;# 
    80     000C                     PIR1            equ	12	;# 
    81     000D                     PIR2            equ	13	;# 
    82     000E                     TMR1            equ	14	;# 
    83     000E                     TMR1L           equ	14	;# 
    84     000F                     TMR1H           equ	15	;# 
    85     0010                     T1CON           equ	16	;# 
    86     0011                     TMR2            equ	17	;# 
    87     0012                     T2CON           equ	18	;# 
    88     0013                     SSPBUF          equ	19	;# 
    89     0014                     SSPCON          equ	20	;# 
    90     0015                     CCPR1           equ	21	;# 
    91     0015                     CCPR1L          equ	21	;# 
    92     0016                     CCPR1H          equ	22	;# 
    93     0017                     CCP1CON         equ	23	;# 
    94     0018                     RCSTA           equ	24	;# 
    95     0019                     TXREG           equ	25	;# 
    96     001A                     RCREG           equ	26	;# 
    97     001B                     CCPR2           equ	27	;# 
    98     001B                     CCPR2L          equ	27	;# 
    99     001C                     CCPR2H          equ	28	;# 
   100     001D                     CCP2CON         equ	29	;# 
   101     001E                     ADRESH          equ	30	;# 
   102     001F                     ADCON0          equ	31	;# 
   103     0081                     OPTION_REG      equ	129	;# 
   104     0085                     TRISA           equ	133	;# 
   105     0086                     TRISB           equ	134	;# 
   106     0087                     TRISC           equ	135	;# 
   107     0088                     TRISD           equ	136	;# 
   108     0089                     TRISE           equ	137	;# 
   109     008C                     PIE1            equ	140	;# 
   110     008D                     PIE2            equ	141	;# 
   111     008E                     PCON            equ	142	;# 
   112     0091                     SSPCON2         equ	145	;# 
   113     0092                     PR2             equ	146	;# 
   114     0093                     SSPADD          equ	147	;# 
   115     0094                     SSPSTAT         equ	148	;# 
   116     0098                     TXSTA           equ	152	;# 
   117     0099                     SPBRG           equ	153	;# 
   118     009C                     CMCON           equ	156	;# 
   119     009D                     CVRCON          equ	157	;# 
   120     009E                     ADRESL          equ	158	;# 
   121     009F                     ADCON1          equ	159	;# 
   122     010C                     EEDATA          equ	268	;# 
   123     010D                     EEADR           equ	269	;# 
   124     010E                     EEDATH          equ	270	;# 
   125     010F                     EEADRH          equ	271	;# 
   126     018C                     EECON1          equ	396	;# 
   127     018D                     EECON2          equ	397	;# 
   128     0000                     INDF            equ	0	;# 
   129     0001                     TMR0            equ	1	;# 
   130     0002                     PCL             equ	2	;# 
   131     0003                     STATUS          equ	3	;# 
   132     0004                     FSR             equ	4	;# 
   133     0005                     PORTA           equ	5	;# 
   134     0006                     PORTB           equ	6	;# 
   135     0007                     PORTC           equ	7	;# 
   136     0008                     PORTD           equ	8	;# 
   137     0009                     PORTE           equ	9	;# 
   138     000A                     PCLATH          equ	10	;# 
   139     000B                     INTCON          equ	11	;# 
   140     000C                     PIR1            equ	12	;# 
   141     000D                     PIR2            equ	13	;# 
   142     000E                     TMR1            equ	14	;# 
   143     000E                     TMR1L           equ	14	;# 
   144     000F                     TMR1H           equ	15	;# 
   145     0010                     T1CON           equ	16	;# 
   146     0011                     TMR2            equ	17	;# 
   147     0012                     T2CON           equ	18	;# 
   148     0013                     SSPBUF          equ	19	;# 
   149     0014                     SSPCON          equ	20	;# 
   150     0015                     CCPR1           equ	21	;# 
   151     0015                     CCPR1L          equ	21	;# 
   152     0016                     CCPR1H          equ	22	;# 
   153     0017                     CCP1CON         equ	23	;# 
   154     0018                     RCSTA           equ	24	;# 
   155     0019                     TXREG           equ	25	;# 
   156     001A                     RCREG           equ	26	;# 
   157     001B                     CCPR2           equ	27	;# 
   158     001B                     CCPR2L          equ	27	;# 
   159     001C                     CCPR2H          equ	28	;# 
   160     001D                     CCP2CON         equ	29	;# 
   161     001E                     ADRESH          equ	30	;# 
   162     001F                     ADCON0          equ	31	;# 
   163     0081                     OPTION_REG      equ	129	;# 
   164     0085                     TRISA           equ	133	;# 
   165     0086                     TRISB           equ	134	;# 
   166     0087                     TRISC           equ	135	;# 
   167     0088                     TRISD           equ	136	;# 
   168     0089                     TRISE           equ	137	;# 
   169     008C                     PIE1            equ	140	;# 
   170     008D                     PIE2            equ	141	;# 
   171     008E                     PCON            equ	142	;# 
   172     0091                     SSPCON2         equ	145	;# 
   173     0092                     PR2             equ	146	;# 
   174     0093                     SSPADD          equ	147	;# 
   175     0094                     SSPSTAT         equ	148	;# 
   176     0098                     TXSTA           equ	152	;# 
   177     0099                     SPBRG           equ	153	;# 
   178     009C                     CMCON           equ	156	;# 
   179     009D                     CVRCON          equ	157	;# 
   180     009E                     ADRESL          equ	158	;# 
   181     009F                     ADCON1          equ	159	;# 
   182     010C                     EEDATA          equ	268	;# 
   183     010D                     EEADR           equ	269	;# 
   184     010E                     EEDATH          equ	270	;# 
   185     010F                     EEADRH          equ	271	;# 
   186     018C                     EECON1          equ	396	;# 
   187     018D                     EECON2          equ	397	;# 
   188     0000                     INDF            equ	0	;# 
   189     0001                     TMR0            equ	1	;# 
   190     0002                     PCL             equ	2	;# 
   191     0003                     STATUS          equ	3	;# 
   192     0004                     FSR             equ	4	;# 
   193     0005                     PORTA           equ	5	;# 
   194     0006                     PORTB           equ	6	;# 
   195     0007                     PORTC           equ	7	;# 
   196     0008                     PORTD           equ	8	;# 
   197     0009                     PORTE           equ	9	;# 
   198     000A                     PCLATH          equ	10	;# 
   199     000B                     INTCON          equ	11	;# 
   200     000C                     PIR1            equ	12	;# 
   201     000D                     PIR2            equ	13	;# 
   202     000E                     TMR1            equ	14	;# 
   203     000E                     TMR1L           equ	14	;# 
   204     000F                     TMR1H           equ	15	;# 
   205     0010                     T1CON           equ	16	;# 
   206     0011                     TMR2            equ	17	;# 
   207     0012                     T2CON           equ	18	;# 
   208     0013                     SSPBUF          equ	19	;# 
   209     0014                     SSPCON          equ	20	;# 
   210     0015                     CCPR1           equ	21	;# 
   211     0015                     CCPR1L          equ	21	;# 
   212     0016                     CCPR1H          equ	22	;# 
   213     0017                     CCP1CON         equ	23	;# 
   214     0018                     RCSTA           equ	24	;# 
   215     0019                     TXREG           equ	25	;# 
   216     001A                     RCREG           equ	26	;# 
   217     001B                     CCPR2           equ	27	;# 
   218     001B                     CCPR2L          equ	27	;# 
   219     001C                     CCPR2H          equ	28	;# 
   220     001D                     CCP2CON         equ	29	;# 
   221     001E                     ADRESH          equ	30	;# 
   222     001F                     ADCON0          equ	31	;# 
   223     0081                     OPTION_REG      equ	129	;# 
   224     0085                     TRISA           equ	133	;# 
   225     0086                     TRISB           equ	134	;# 
   226     0087                     TRISC           equ	135	;# 
   227     0088                     TRISD           equ	136	;# 
   228     0089                     TRISE           equ	137	;# 
   229     008C                     PIE1            equ	140	;# 
   230     008D                     PIE2            equ	141	;# 
   231     008E                     PCON            equ	142	;# 
   232     0091                     SSPCON2         equ	145	;# 
   233     0092                     PR2             equ	146	;# 
   234     0093                     SSPADD          equ	147	;# 
   235     0094                     SSPSTAT         equ	148	;# 
   236     0098                     TXSTA           equ	152	;# 
   237     0099                     SPBRG           equ	153	;# 
   238     009C                     CMCON           equ	156	;# 
   239     009D                     CVRCON          equ	157	;# 
   240     009E                     ADRESL          equ	158	;# 
   241     009F                     ADCON1          equ	159	;# 
   242     010C                     EEDATA          equ	268	;# 
   243     010D                     EEADR           equ	269	;# 
   244     010E                     EEDATH          equ	270	;# 
   245     010F                     EEADRH          equ	271	;# 
   246     018C                     EECON1          equ	396	;# 
   247     018D                     EECON2          equ	397	;# 
   248     0000                     INDF            equ	0	;# 
   249     0001                     TMR0            equ	1	;# 
   250     0002                     PCL             equ	2	;# 
   251     0003                     STATUS          equ	3	;# 
   252     0004                     FSR             equ	4	;# 
   253     0005                     PORTA           equ	5	;# 
   254     0006                     PORTB           equ	6	;# 
   255     0007                     PORTC           equ	7	;# 
   256     0008                     PORTD           equ	8	;# 
   257     0009                     PORTE           equ	9	;# 
   258     000A                     PCLATH          equ	10	;# 
   259     000B                     INTCON          equ	11	;# 
   260     000C                     PIR1            equ	12	;# 
   261     000D                     PIR2            equ	13	;# 
   262     000E                     TMR1            equ	14	;# 
   263     000E                     TMR1L           equ	14	;# 
   264     000F                     TMR1H           equ	15	;# 
   265     0010                     T1CON           equ	16	;# 
   266     0011                     TMR2            equ	17	;# 
   267     0012                     T2CON           equ	18	;# 
   268     0013                     SSPBUF          equ	19	;# 
   269     0014                     SSPCON          equ	20	;# 
   270     0015                     CCPR1           equ	21	;# 
   271     0015                     CCPR1L          equ	21	;# 
   272     0016                     CCPR1H          equ	22	;# 
   273     0017                     CCP1CON         equ	23	;# 
   274     0018                     RCSTA           equ	24	;# 
   275     0019                     TXREG           equ	25	;# 
   276     001A                     RCREG           equ	26	;# 
   277     001B                     CCPR2           equ	27	;# 
   278     001B                     CCPR2L          equ	27	;# 
   279     001C                     CCPR2H          equ	28	;# 
   280     001D                     CCP2CON         equ	29	;# 
   281     001E                     ADRESH          equ	30	;# 
   282     001F                     ADCON0          equ	31	;# 
   283     0081                     OPTION_REG      equ	129	;# 
   284     0085                     TRISA           equ	133	;# 
   285     0086                     TRISB           equ	134	;# 
   286     0087                     TRISC           equ	135	;# 
   287     0088                     TRISD           equ	136	;# 
   288     0089                     TRISE           equ	137	;# 
   289     008C                     PIE1            equ	140	;# 
   290     008D                     PIE2            equ	141	;# 
   291     008E                     PCON            equ	142	;# 
   292     0091                     SSPCON2         equ	145	;# 
   293     0092                     PR2             equ	146	;# 
   294     0093                     SSPADD          equ	147	;# 
   295     0094                     SSPSTAT         equ	148	;# 
   296     0098                     TXSTA           equ	152	;# 
   297     0099                     SPBRG           equ	153	;# 
   298     009C                     CMCON           equ	156	;# 
   299     009D                     CVRCON          equ	157	;# 
   300     009E                     ADRESL          equ	158	;# 
   301     009F                     ADCON1          equ	159	;# 
   302     010C                     EEDATA          equ	268	;# 
   303     010D                     EEADR           equ	269	;# 
   304     010E                     EEDATH          equ	270	;# 
   305     010F                     EEADRH          equ	271	;# 
   306     018C                     EECON1          equ	396	;# 
   307     018D                     EECON2          equ	397	;# 
   308                           
   309                           	psect	idataBANK0
   310     0046                     __pidataBANK0:
   311                           
   312                           ;initializer for read_digital_keypad@once
   313     0046  3401               	retlw	1
   314                           
   315                           ;initializer for pwm_control@duty_cycle
   316     0047  3432               	retlw	50
   317     0006                     _PORTB          set	6
   318     0015                     _CCPR1L         set	21
   319     0017                     _CCP1CON        set	23
   320     0008                     _PORTD          set	8
   321     0092                     _TMR2ON         set	146
   322     0091                     _T2CKPS1        set	145
   323     0090                     _T2CKPS0        set	144
   324     0086                     _TRISB          set	134
   325     0092                     _PR2            set	146
   326     0088                     _TRISD          set	136
   327     043A                     _TRISC2         set	1082
   328                           
   329                           	psect	cinit
   330     07EC                     start_initialization:	
   331                           ; #config settings
   332                           
   333     07EC                     __initialization:
   334                           
   335                           ; Initialize objects allocated to BANK0
   336     07EC  120A  118A  2046  120A  118A  	fcall	__pidataBANK0	;fetch initializer
   337     07F1  00ED               	movwf	__pdataBANK0& (0+127)
   338     07F2  120A  118A  2047  120A  118A  	fcall	__pidataBANK0+1	;fetch initializer
   339     07F7  00EE               	movwf	(__pdataBANK0+1)& (0+127)
   340                           
   341                           ; Clear objects allocated to BANK1
   342     07F8  1683               	bsf	3,5	;RP0=1, select bank1
   343     07F9  1303               	bcf	3,6	;RP1=0, select bank1
   344     07FA  01A0               	clrf	__pbssBANK1& (0+127)
   345     07FB  01A1               	clrf	(__pbssBANK1+1)& (0+127)
   346     07FC                     end_of_initialization:	
   347                           ;End of C runtime variable initialization code
   348                           
   349     07FC                     __end_of__initialization:
   350     07FC  0183               	clrf	3
   351     07FD  120A  118A  28BD   	ljmp	_main	;jump to C main() function
   352                           
   353                           	psect	dataBANK0
   354     006D                     __pdataBANK0:
   355     006D                     read_digital_keypad@once:
   356     006D                     	ds	1
   357     006E                     pwm_control@duty_cycle:
   358     006E                     	ds	1
   359                           
   360                           	psect	bssBANK1
   361     00A0                     __pbssBANK1:
   362     00A0                     pwm_control@wait:
   363     00A0                     	ds	2
   364                           
   365                           	psect	cstackCOMMON
   366     0070                     __pcstackCOMMON:
   367     0070                     ?_set_pwm_duty:
   368     0070                     ?_init_digital_keypad:	
   369                           ; 1 bytes @ 0x0
   370                           
   371     0070                     ?_init_pwm:	
   372                           ; 1 bytes @ 0x0
   373                           
   374     0070                     ?_read_digital_keypad:	
   375                           ; 1 bytes @ 0x0
   376                           
   377     0070                     ?_pwm_control:	
   378                           ; 1 bytes @ 0x0
   379                           
   380     0070                     ?_init_config:	
   381                           ; 1 bytes @ 0x0
   382                           
   383     0070                     ?_main:	
   384                           ; 1 bytes @ 0x0
   385                           
   386     0070                     ?__Umul8_16:	
   387                           ; 1 bytes @ 0x0
   388                           
   389     0070                     ?___xxtofl:	
   390                           ; 2 bytes @ 0x0
   391                           
   392     0070                     __Umul8_16@multiplicand:	
   393                           ; 4 bytes @ 0x0
   394                           
   395     0070                     ___xxtofl@val:	
   396                           ; 1 bytes @ 0x0
   397                           
   398     0070                     ??_init_digital_keypad:	
   399                           ; 4 bytes @ 0x0
   400                           
   401     0070                     ??_init_pwm:	
   402                           ; 1 bytes @ 0x0
   403                           
   404     0070                     ??_read_digital_keypad:	
   405                           ; 1 bytes @ 0x0
   406                           
   407     0070                     ??_init_config:	
   408                           ; 1 bytes @ 0x0
   409                           
   410                           
   411                           ; 1 bytes @ 0x0
   412     0070                     	ds	1
   413     0071                     read_digital_keypad@mode:
   414                           
   415                           ; 1 bytes @ 0x1
   416     0071                     	ds	1
   417     0072                     ??__Umul8_16:
   418                           
   419                           ; 1 bytes @ 0x2
   420     0072                     	ds	2
   421     0074                     __Umul8_16@product:
   422     0074                     ??___xxtofl:	
   423                           ; 2 bytes @ 0x4
   424                           
   425                           
   426                           ; 1 bytes @ 0x4
   427     0074                     	ds	2
   428     0076                     __Umul8_16@word_mpld:
   429                           
   430                           ; 2 bytes @ 0x6
   431     0076                     	ds	2
   432     0078                     __Umul8_16@multiplier:
   433     0078                     ___xxtofl@sign:	
   434                           ; 1 bytes @ 0x8
   435                           
   436                           
   437                           ; 1 bytes @ 0x8
   438     0078                     	ds	1
   439     0079                     ___xxtofl@exp:
   440                           
   441                           ; 1 bytes @ 0x9
   442     0079                     	ds	1
   443     007A                     ___xxtofl@arg:
   444                           
   445                           ; 4 bytes @ 0xA
   446     007A                     	ds	4
   447     007E                     ??_pwm_control:
   448     007E                     ??_main:	
   449                           ; 1 bytes @ 0xE
   450                           
   451                           
   452                           	psect	cstackBANK0
   453     0020                     __pcstackBANK0:	
   454                           ; 1 bytes @ 0xE
   455                           
   456     0020                     ?___fldiv:
   457     0020                     ___fldiv@a:	
   458                           ; 4 bytes @ 0x0
   459                           
   460                           
   461                           ; 4 bytes @ 0x0
   462     0020                     	ds	4
   463     0024                     ___fldiv@b:
   464                           
   465                           ; 4 bytes @ 0x4
   466     0024                     	ds	4
   467     0028                     ??___fldiv:
   468                           
   469                           ; 1 bytes @ 0x8
   470     0028                     	ds	5
   471     002D                     ___fldiv@rem:
   472                           
   473                           ; 4 bytes @ 0xD
   474     002D                     	ds	4
   475     0031                     ___fldiv@sign:
   476                           
   477                           ; 1 bytes @ 0x11
   478     0031                     	ds	1
   479     0032                     ___fldiv@new_exp:
   480                           
   481                           ; 2 bytes @ 0x12
   482     0032                     	ds	2
   483     0034                     ___fldiv@grs:
   484                           
   485                           ; 4 bytes @ 0x14
   486     0034                     	ds	4
   487     0038                     ___fldiv@bexp:
   488                           
   489                           ; 1 bytes @ 0x18
   490     0038                     	ds	1
   491     0039                     ___fldiv@aexp:
   492                           
   493                           ; 1 bytes @ 0x19
   494     0039                     	ds	1
   495     003A                     ?___flmul:
   496     003A                     ___flmul@b:	
   497                           ; 4 bytes @ 0x1A
   498                           
   499                           
   500                           ; 4 bytes @ 0x1A
   501     003A                     	ds	4
   502     003E                     ___flmul@a:
   503                           
   504                           ; 4 bytes @ 0x1E
   505     003E                     	ds	4
   506     0042                     ??___flmul:
   507                           
   508                           ; 1 bytes @ 0x22
   509     0042                     	ds	5
   510     0047                     ___flmul@sign:
   511                           
   512                           ; 1 bytes @ 0x27
   513     0047                     	ds	1
   514     0048                     ___flmul@grs:
   515                           
   516                           ; 4 bytes @ 0x28
   517     0048                     	ds	4
   518     004C                     ___flmul@aexp:
   519                           
   520                           ; 1 bytes @ 0x2C
   521     004C                     	ds	1
   522     004D                     ___flmul@bexp:
   523                           
   524                           ; 1 bytes @ 0x2D
   525     004D                     	ds	1
   526     004E                     ___flmul@prod:
   527                           
   528                           ; 4 bytes @ 0x2E
   529     004E                     	ds	4
   530     0052                     ___flmul@temp:
   531                           
   532                           ; 2 bytes @ 0x32
   533     0052                     	ds	2
   534     0054                     ?___fltol:
   535     0054                     ___fltol@f1:	
   536                           ; 4 bytes @ 0x34
   537                           
   538                           
   539                           ; 4 bytes @ 0x34
   540     0054                     	ds	4
   541     0058                     ??___fltol:
   542                           
   543                           ; 1 bytes @ 0x38
   544     0058                     	ds	4
   545     005C                     ___fltol@sign1:
   546                           
   547                           ; 1 bytes @ 0x3C
   548     005C                     	ds	1
   549     005D                     ___fltol@exp1:
   550                           
   551                           ; 1 bytes @ 0x3D
   552     005D                     	ds	1
   553     005E                     ??_set_pwm_duty:
   554                           
   555                           ; 1 bytes @ 0x3E
   556     005E                     	ds	4
   557     0062                     _set_pwm_duty$677:
   558                           
   559                           ; 4 bytes @ 0x42
   560     0062                     	ds	4
   561     0066                     set_pwm_duty@duty:
   562                           
   563                           ; 1 bytes @ 0x46
   564     0066                     	ds	1
   565     0067                     set_pwm_duty@reg_val:
   566                           
   567                           ; 2 bytes @ 0x47
   568     0067                     	ds	2
   569     0069                     pwm_control@key:
   570                           
   571                           ; 1 bytes @ 0x49
   572     0069                     	ds	1
   573     006A                     main@i:
   574                           
   575                           ; 2 bytes @ 0x4A
   576     006A                     	ds	2
   577     006C                     main@key:
   578                           
   579                           ; 1 bytes @ 0x4C
   580     006C                     	ds	1
   581                           
   582                           	psect	maintext
   583     00BD                     __pmaintext:	
   584 ;;
   585 ;;Main: autosize = 0, tempsize = 0, incstack = 0, save=0
   586 ;;
   587 ;; *************** function _main *****************
   588 ;; Defined at:
   589 ;;		line 50 in file "main.c"
   590 ;; Parameters:    Size  Location     Type
   591 ;;		None
   592 ;; Auto vars:     Size  Location     Type
   593 ;;  i               2   74[BANK0 ] int 
   594 ;;  key             1   76[BANK0 ] unsigned char 
   595 ;; Return value:  Size  Location     Type
   596 ;;                  1    wreg      void 
   597 ;; Registers used:
   598 ;;		wreg, status,2, status,0, pclath, btemp1, cstack
   599 ;; Tracked objects:
   600 ;;		On entry : B00/0
   601 ;;		On exit  : 0/0
   602 ;;		Unchanged: 0/0
   603 ;; Data sizes:     COMMON   BANK0   BANK1   BANK3   BANK2
   604 ;;      Params:         0       0       0       0       0
   605 ;;      Locals:         0       3       0       0       0
   606 ;;      Temps:          0       0       0       0       0
   607 ;;      Totals:         0       3       0       0       0
   608 ;;Total ram usage:        3 bytes
   609 ;; Hardware stack levels required when called: 4
   610 ;; This function calls:
   611 ;;		_init_config
   612 ;;		_pwm_control
   613 ;;		_read_digital_keypad
   614 ;; This function is called by:
   615 ;;		Startup code after reset
   616 ;; This function uses a non-reentrant model
   617 ;;
   618                           
   619     00BD                     _main:	
   620                           ;psect for function _main
   621                           
   622     00BD                     l1508:	
   623                           ;incstack = 0
   624                           ; Regs used in _main: [wreg+status,2+status,0+pclath+btemp1+cstack]
   625                           
   626                           
   627                           ;main.c: 51: }
   628     00BD  120A  118A  205B  120A  118A  	fcall	_init_config
   629     00C2                     l33:
   630     00C2  3000               	movlw	0
   631     00C3  120A  118A  2093  120A  118A  	fcall	_read_digital_keypad
   632     00C8  1283               	bcf	3,5	;RP0=0, select bank0
   633     00C9  1303               	bcf	3,6	;RP1=0, select bank0
   634     00CA  00EC               	movwf	main@key
   635     00CB                     l1510:
   636     00CB  086C               	movf	main@key,w
   637     00CC  120A  118A  20E9  120A  118A  	fcall	_pwm_control
   638     00D1                     l1512:
   639     00D1  3010               	movlw	16
   640     00D2  1283               	bcf	3,5	;RP0=0, select bank0
   641     00D3  1303               	bcf	3,6	;RP1=0, select bank0
   642     00D4  00EA               	movwf	main@i
   643     00D5  3027               	movlw	39
   644     00D6  00EB               	movwf	main@i+1
   645     00D7                     l1514:
   646     00D7  30FF               	movlw	255
   647     00D8  07EA               	addwf	main@i,f
   648     00D9  1803               	skipnc
   649     00DA  0AEB               	incf	main@i+1,f
   650     00DB  30FF               	movlw	255
   651     00DC  07EB               	addwf	main@i+1,f
   652     00DD  0A6A               	incf	main@i,w
   653     00DE  1D03               	skipz
   654     00DF  28E4               	goto	u2081
   655     00E0  0A6B               	incf	main@i+1,w
   656     00E1  1D03               	btfss	3,2
   657     00E2  28E4               	goto	u2081
   658     00E3  28E5               	goto	u2080
   659     00E4                     u2081:
   660     00E4  28D7               	goto	l1514
   661     00E5                     u2080:
   662     00E5  28C2               	goto	l33
   663     00E6  120A  118A  2800   	ljmp	start
   664     00E9                     __end_of_main:
   665                           
   666                           	psect	text1
   667     0093                     __ptext1:	
   668 ;; *************** function _read_digital_keypad *****************
   669 ;; Defined at:
   670 ;;		line 10 in file "digital_keypad.c"
   671 ;; Parameters:    Size  Location     Type
   672 ;;  mode            1    wreg     unsigned char 
   673 ;; Auto vars:     Size  Location     Type
   674 ;;  mode            1    1[COMMON] unsigned char 
   675 ;; Return value:  Size  Location     Type
   676 ;;                  1    wreg      unsigned char 
   677 ;; Registers used:
   678 ;;		wreg, status,2, status,0
   679 ;; Tracked objects:
   680 ;;		On entry : 0/0
   681 ;;		On exit  : 0/0
   682 ;;		Unchanged: 0/0
   683 ;; Data sizes:     COMMON   BANK0   BANK1   BANK3   BANK2
   684 ;;      Params:         0       0       0       0       0
   685 ;;      Locals:         1       0       0       0       0
   686 ;;      Temps:          1       0       0       0       0
   687 ;;      Totals:         2       0       0       0       0
   688 ;;Total ram usage:        2 bytes
   689 ;; Hardware stack levels used: 1
   690 ;; This function calls:
   691 ;;		Nothing
   692 ;; This function is called by:
   693 ;;		_main
   694 ;; This function uses a non-reentrant model
   695 ;;
   696                           
   697     0093                     _read_digital_keypad:	
   698                           ;psect for function _read_digital_keypad
   699                           
   700                           
   701                           ;incstack = 0
   702                           ; Regs used in _read_digital_keypad: [wreg+status,2+status,0]
   703                           ;read_digital_keypad@mode stored from wreg
   704     0093  00F1               	movwf	read_digital_keypad@mode
   705     0094                     l1480:
   706                           
   707                           ;digital_keypad.c: 10: unsigned char read_digital_keypad(unsigned char mode);digital_key
      +                          pad.c: 11: {;digital_keypad.c: 12:     static unsigned char once = 1;;digital_keypad.c: 
      +                          14:     if (mode == 0)
   708     0094  0871               	movf	read_digital_keypad@mode,w
   709     0095  1D03               	btfss	3,2
   710     0096  2898               	goto	u2041
   711     0097  2899               	goto	u2040
   712     0098                     u2041:
   713     0098  289E               	goto	l1488
   714     0099                     u2040:
   715     0099                     l1482:
   716                           
   717                           ;digital_keypad.c: 15:     {;digital_keypad.c: 16:         return PORTB & 0x3F;
   718     0099  1283               	bcf	3,5	;RP0=0, select bank0
   719     009A  1303               	bcf	3,6	;RP1=0, select bank0
   720     009B  0806               	movf	6,w	;volatile
   721     009C  393F               	andlw	63
   722     009D  28BC               	goto	l72
   723     009E                     l1488:
   724                           
   725                           ;digital_keypad.c: 19:     {;digital_keypad.c: 20:         if (((PORTB & 0x3F) != 0x3F) 
      +                          && once)
   726     009E  303F               	movlw	63
   727     009F  1283               	bcf	3,5	;RP0=0, select bank0
   728     00A0  1303               	bcf	3,6	;RP1=0, select bank0
   729     00A1  0506               	andwf	6,w	;volatile
   730     00A2  00F0               	movwf	??_read_digital_keypad
   731     00A3  303F               	movlw	63
   732     00A4  0670               	xorwf	??_read_digital_keypad,w
   733     00A5  1903               	btfsc	3,2
   734     00A6  28A8               	goto	u2051
   735     00A7  28A9               	goto	u2050
   736     00A8                     u2051:
   737     00A8  28B0               	goto	l1500
   738     00A9                     u2050:
   739     00A9                     l1490:
   740     00A9  086D               	movf	read_digital_keypad@once,w
   741     00AA  1903               	btfsc	3,2
   742     00AB  28AD               	goto	u2061
   743     00AC  28AE               	goto	u2060
   744     00AD                     u2061:
   745     00AD  28B0               	goto	l1500
   746     00AE                     u2060:
   747     00AE                     l1492:
   748                           
   749                           ;digital_keypad.c: 21:         {;digital_keypad.c: 22:             once = 0;
   750     00AE  01ED               	clrf	read_digital_keypad@once
   751     00AF  2899               	goto	l1482
   752     00B0                     l1500:
   753     00B0  303F               	movlw	63
   754     00B1  0506               	andwf	6,w	;volatile
   755     00B2  00F0               	movwf	??_read_digital_keypad
   756     00B3  303F               	movlw	63
   757     00B4  0670               	xorwf	??_read_digital_keypad,w
   758     00B5  1D03               	btfss	3,2
   759     00B6  28B8               	goto	u2071
   760     00B7  28B9               	goto	u2070
   761     00B8                     u2071:
   762     00B8  28BB               	goto	l1504
   763     00B9                     u2070:
   764     00B9                     l1502:
   765                           
   766                           ;digital_keypad.c: 27:         {;digital_keypad.c: 28:             once = 1;
   767     00B9  3001               	movlw	1
   768     00BA  00ED               	movwf	read_digital_keypad@once
   769     00BB                     l1504:
   770                           
   771                           ;digital_keypad.c: 32:     return 0x3F;
   772     00BB  303F               	movlw	63
   773     00BC                     l72:
   774     00BC  0008               	return
   775     00BD                     __end_of_read_digital_keypad:
   776                           
   777                           	psect	text2
   778     00E9                     __ptext2:	
   779 ;; *************** function _pwm_control *****************
   780 ;; Defined at:
   781 ;;		line 14 in file "main.c"
   782 ;; Parameters:    Size  Location     Type
   783 ;;  key             1    wreg     unsigned char 
   784 ;; Auto vars:     Size  Location     Type
   785 ;;  key             1   73[BANK0 ] unsigned char 
   786 ;; Return value:  Size  Location     Type
   787 ;;                  1    wreg      void 
   788 ;; Registers used:
   789 ;;		wreg, status,2, status,0, pclath, btemp1, cstack
   790 ;; Tracked objects:
   791 ;;		On entry : 0/0
   792 ;;		On exit  : 0/0
   793 ;;		Unchanged: 0/0
   794 ;; Data sizes:     COMMON   BANK0   BANK1   BANK3   BANK2
   795 ;;      Params:         0       0       0       0       0
   796 ;;      Locals:         0       1       0       0       0
   797 ;;      Temps:          0       0       0       0       0
   798 ;;      Totals:         0       1       0       0       0
   799 ;;Total ram usage:        1 bytes
   800 ;; Hardware stack levels used: 1
   801 ;; Hardware stack levels required when called: 3
   802 ;; This function calls:
   803 ;;		_set_pwm_duty
   804 ;; This function is called by:
   805 ;;		_main
   806 ;; This function uses a non-reentrant model
   807 ;;
   808                           
   809     00E9                     _pwm_control:	
   810                           ;psect for function _pwm_control
   811                           
   812                           
   813                           ;incstack = 0
   814                           ; Regs used in _pwm_control: [wreg+status,2+status,0+pclath+btemp1+cstack]
   815                           ;pwm_control@key stored from wreg
   816     00E9  1283               	bcf	3,5	;RP0=0, select bank0
   817     00EA  1303               	bcf	3,6	;RP1=0, select bank0
   818     00EB  00E9               	movwf	pwm_control@key
   819     00EC                     l1456:
   820                           
   821                           ;main.c: 14:             {;main.c: 15:                 duty_cycle++;;main.c: 16:        
      +                               };main.c: 17:         };main.c: 19:         {
   822     00EC  3001               	movlw	1
   823     00ED  1683               	bsf	3,5	;RP0=1, select bank1
   824     00EE  1303               	bcf	3,6	;RP1=0, select bank1
   825     00EF  02A0               	subwf	pwm_control@wait^(0+128),f
   826     00F0  3000               	movlw	0
   827     00F1  1C03               	skipc
   828     00F2  03A1               	decf	(pwm_control@wait+1)^(0+128),f
   829     00F3  02A1               	subwf	(pwm_control@wait+1)^(0+128),f
   830     00F4  0A20               	incf	pwm_control@wait^(0+128),w
   831     00F5  1D03               	skipz
   832     00F6  28FB               	goto	u1991
   833     00F7  0A21               	incf	(pwm_control@wait+1)^(0+128),w
   834     00F8  1D03               	btfss	3,2
   835     00F9  28FB               	goto	u1991
   836     00FA  28FC               	goto	u1990
   837     00FB                     u1991:
   838     00FB  291C               	goto	l1472
   839     00FC                     u1990:
   840     00FC                     l1458:
   841                           
   842                           ;main.c: 20:             if (duty_cycle != 0);main.c: 21:             {
   843     00FC  01A0               	clrf	pwm_control@wait^(0+128)
   844     00FD  01A1               	clrf	(pwm_control@wait+1)^(0+128)
   845     00FE                     l1460:
   846                           
   847                           ;main.c: 23:             }
   848     00FE  303E               	movlw	62
   849     00FF  1283               	bcf	3,5	;RP0=0, select bank0
   850     0100  1303               	bcf	3,6	;RP1=0, select bank0
   851     0101  0669               	xorwf	pwm_control@key,w
   852     0102  1D03               	btfss	3,2
   853     0103  2905               	goto	u2001
   854     0104  2906               	goto	u2000
   855     0105                     u2001:
   856     0105  290F               	goto	l1466
   857     0106                     u2000:
   858     0106                     l1462:
   859                           
   860                           ;main.c: 24:         };main.c: 25:     }
   861     0106  3064               	movlw	100
   862     0107  066E               	xorwf	pwm_control@duty_cycle,w
   863     0108  1903               	btfsc	3,2
   864     0109  290B               	goto	u2011
   865     010A  290C               	goto	u2010
   866     010B                     u2011:
   867     010B  291C               	goto	l1472
   868     010C                     u2010:
   869     010C                     l1464:
   870                           
   871                           ;main.c: 26: ;main.c: 27:     set_pwm_duty(duty_cycle);
   872     010C  3001               	movlw	1
   873     010D  07EE               	addwf	pwm_control@duty_cycle,f
   874     010E  291C               	goto	l1472
   875     010F                     l1466:
   876     010F  303D               	movlw	61
   877     0110  0669               	xorwf	pwm_control@key,w
   878     0111  1D03               	btfss	3,2
   879     0112  2914               	goto	u2021
   880     0113  2915               	goto	u2020
   881     0114                     u2021:
   882     0114  291C               	goto	l1472
   883     0115                     u2020:
   884     0115                     l1468:
   885                           
   886                           ;main.c: 31:     PORTD = 0x00;;main.c: 32:     TRISD = 0x00;
   887     0115  086E               	movf	pwm_control@duty_cycle,w
   888     0116  1903               	btfsc	3,2
   889     0117  2919               	goto	u2031
   890     0118  291A               	goto	u2030
   891     0119                     u2031:
   892     0119  291C               	goto	l1472
   893     011A                     u2030:
   894     011A                     l1470:
   895                           
   896                           ;main.c: 33: ;main.c: 34:     init_digital_keypad();
   897     011A  3001               	movlw	1
   898     011B  02EE               	subwf	pwm_control@duty_cycle,f
   899     011C                     l1472:
   900                           
   901                           ;main.c: 39:     unsigned char key;
   902     011C  1283               	bcf	3,5	;RP0=0, select bank0
   903     011D  086E               	movf	pwm_control@duty_cycle,w
   904     011E  120A  118A  219A  120A  118A  	fcall	_set_pwm_duty
   905     0123                     l25:
   906     0123  0008               	return
   907     0124                     __end_of_pwm_control:
   908                           
   909                           	psect	text3
   910     019A                     __ptext3:	
   911 ;; *************** function _set_pwm_duty *****************
   912 ;; Defined at:
   913 ;;		line 22 in file "pwm.c"
   914 ;; Parameters:    Size  Location     Type
   915 ;;  duty            1    wreg     unsigned char 
   916 ;; Auto vars:     Size  Location     Type
   917 ;;  duty            1   70[BANK0 ] unsigned char 
   918 ;;  reg_val         2   71[BANK0 ] unsigned int 
   919 ;; Return value:  Size  Location     Type
   920 ;;                  1    wreg      void 
   921 ;; Registers used:
   922 ;;		wreg, status,2, status,0, pclath, btemp1, cstack
   923 ;; Tracked objects:
   924 ;;		On entry : 0/0
   925 ;;		On exit  : 0/0
   926 ;;		Unchanged: 0/0
   927 ;; Data sizes:     COMMON   BANK0   BANK1   BANK3   BANK2
   928 ;;      Params:         0       0       0       0       0
   929 ;;      Locals:         0       7       0       0       0
   930 ;;      Temps:          0       4       0       0       0
   931 ;;      Totals:         0      11       0       0       0
   932 ;;Total ram usage:       11 bytes
   933 ;; Hardware stack levels used: 1
   934 ;; Hardware stack levels required when called: 2
   935 ;; This function calls:
   936 ;;		___fldiv
   937 ;;		___flmul
   938 ;;		___fltol
   939 ;;		___xxtofl
   940 ;; This function is called by:
   941 ;;		_pwm_control
   942 ;; This function uses a non-reentrant model
   943 ;;
   944                           
   945     019A                     _set_pwm_duty:	
   946                           ;psect for function _set_pwm_duty
   947                           
   948                           
   949                           ;incstack = 0
   950                           ; Regs used in _set_pwm_duty: [wreg+status,2+status,0+pclath+btemp1+cstack]
   951                           ;set_pwm_duty@duty stored from wreg
   952     019A  1283               	bcf	3,5	;RP0=0, select bank0
   953     019B  1303               	bcf	3,6	;RP1=0, select bank0
   954     019C  00E6               	movwf	set_pwm_duty@duty
   955     019D                     l1446:
   956                           
   957                           ;pwm.c: 22: void set_pwm_duty(unsigned char duty);pwm.c: 23: {;pwm.c: 24:     unsigned i
      +                          nt reg_val;;pwm.c: 26:     reg_val = ((float) duty / 100) * 250 * 4;
   958     019D  0866               	movf	set_pwm_duty@duty,w
   959     019E  00DE               	movwf	??_set_pwm_duty
   960     019F  01DF               	clrf	??_set_pwm_duty+1
   961     01A0  01E0               	clrf	??_set_pwm_duty+2
   962     01A1  01E1               	clrf	??_set_pwm_duty+3
   963     01A2  0861               	movf	??_set_pwm_duty+3,w
   964     01A3  00F3               	movwf	___xxtofl@val+3
   965     01A4  0860               	movf	??_set_pwm_duty+2,w
   966     01A5  00F2               	movwf	___xxtofl@val+2
   967     01A6  085F               	movf	??_set_pwm_duty+1,w
   968     01A7  00F1               	movwf	___xxtofl@val+1
   969     01A8  085E               	movf	??_set_pwm_duty,w
   970     01A9  00F0               	movwf	___xxtofl@val
   971     01AA  3000               	movlw	0
   972     01AB  120A  118A  222C  120A  118A  	fcall	___xxtofl
   973     01B0  0873               	movf	?___xxtofl+3,w
   974     01B1  1283               	bcf	3,5	;RP0=0, select bank0
   975     01B2  1303               	bcf	3,6	;RP1=0, select bank0
   976     01B3  00A7               	movwf	___fldiv@b+3
   977     01B4  0872               	movf	?___xxtofl+2,w
   978     01B5  00A6               	movwf	___fldiv@b+2
   979     01B6  0871               	movf	?___xxtofl+1,w
   980     01B7  00A5               	movwf	___fldiv@b+1
   981     01B8  0870               	movf	?___xxtofl,w
   982     01B9  00A4               	movwf	___fldiv@b
   983     01BA  3042               	movlw	66
   984     01BB  00A3               	movwf	___fldiv@a+3
   985     01BC  30C8               	movlw	200
   986     01BD  00A2               	movwf	___fldiv@a+2
   987     01BE  3000               	movlw	0
   988     01BF  00A1               	movwf	___fldiv@a+1
   989     01C0  3000               	movlw	0
   990     01C1  00A0               	movwf	___fldiv@a
   991     01C2  120A  118A  22E0  120A  118A  	fcall	___fldiv
   992     01C7  1283               	bcf	3,5	;RP0=0, select bank0
   993     01C8  1303               	bcf	3,6	;RP1=0, select bank0
   994     01C9  0823               	movf	?___fldiv+3,w
   995     01CA  00C1               	movwf	___flmul@a+3
   996     01CB  0822               	movf	?___fldiv+2,w
   997     01CC  00C0               	movwf	___flmul@a+2
   998     01CD  0821               	movf	?___fldiv+1,w
   999     01CE  00BF               	movwf	___flmul@a+1
  1000     01CF  0820               	movf	?___fldiv,w
  1001     01D0  00BE               	movwf	___flmul@a
  1002     01D1  3043               	movlw	67
  1003     01D2  00BD               	movwf	___flmul@b+3
  1004     01D3  307A               	movlw	122
  1005     01D4  00BC               	movwf	___flmul@b+2
  1006     01D5  3000               	movlw	0
  1007     01D6  00BB               	movwf	___flmul@b+1
  1008     01D7  3000               	movlw	0
  1009     01D8  00BA               	movwf	___flmul@b
  1010     01D9  120A  118A  24AA  120A  118A  	fcall	___flmul
  1011     01DE  1283               	bcf	3,5	;RP0=0, select bank0
  1012     01DF  1303               	bcf	3,6	;RP1=0, select bank0
  1013     01E0  083D               	movf	?___flmul+3,w
  1014     01E1  00E5               	movwf	_set_pwm_duty$677+3
  1015     01E2  083C               	movf	?___flmul+2,w
  1016     01E3  00E4               	movwf	_set_pwm_duty$677+2
  1017     01E4  083B               	movf	?___flmul+1,w
  1018     01E5  00E3               	movwf	_set_pwm_duty$677+1
  1019     01E6  083A               	movf	?___flmul,w
  1020     01E7  00E2               	movwf	_set_pwm_duty$677
  1021                           
  1022                           ;pwm.c: 22: void set_pwm_duty(unsigned char duty);pwm.c: 23: {;pwm.c: 24:     unsigned i
      +                          nt reg_val;;pwm.c: 26:     reg_val = ((float) duty / 100) * 250 * 4;
  1023     01E8  0865               	movf	_set_pwm_duty$677+3,w
  1024     01E9  00C1               	movwf	___flmul@a+3
  1025     01EA  0864               	movf	_set_pwm_duty$677+2,w
  1026     01EB  00C0               	movwf	___flmul@a+2
  1027     01EC  0863               	movf	_set_pwm_duty$677+1,w
  1028     01ED  00BF               	movwf	___flmul@a+1
  1029     01EE  0862               	movf	_set_pwm_duty$677,w
  1030     01EF  00BE               	movwf	___flmul@a
  1031     01F0  3040               	movlw	64
  1032     01F1  00BD               	movwf	___flmul@b+3
  1033     01F2  3080               	movlw	128
  1034     01F3  00BC               	movwf	___flmul@b+2
  1035     01F4  3000               	movlw	0
  1036     01F5  00BB               	movwf	___flmul@b+1
  1037     01F6  3000               	movlw	0
  1038     01F7  00BA               	movwf	___flmul@b
  1039     01F8  120A  118A  24AA  120A  118A  	fcall	___flmul
  1040     01FD  1283               	bcf	3,5	;RP0=0, select bank0
  1041     01FE  1303               	bcf	3,6	;RP1=0, select bank0
  1042     01FF  083D               	movf	?___flmul+3,w
  1043     0200  00D7               	movwf	___fltol@f1+3
  1044     0201  083C               	movf	?___flmul+2,w
  1045     0202  00D6               	movwf	___fltol@f1+2
  1046     0203  083B               	movf	?___flmul+1,w
  1047     0204  00D5               	movwf	___fltol@f1+1
  1048     0205  083A               	movf	?___flmul,w
  1049     0206  00D4               	movwf	___fltol@f1
  1050     0207  120A  118A  2124  120A  118A  	fcall	___fltol
  1051     020C  1283               	bcf	3,5	;RP0=0, select bank0
  1052     020D  1303               	bcf	3,6	;RP1=0, select bank0
  1053     020E  0855               	movf	?___fltol+1,w
  1054     020F  00E8               	movwf	set_pwm_duty@reg_val+1
  1055     0210  0854               	movf	?___fltol,w
  1056     0211  00E7               	movwf	set_pwm_duty@reg_val
  1057     0212                     l1448:
  1058                           
  1059                           ;pwm.c: 28:     CCPR1L = reg_val >> 2;
  1060     0212  0868               	movf	set_pwm_duty@reg_val+1,w
  1061     0213  00DF               	movwf	??_set_pwm_duty+1
  1062     0214  0867               	movf	set_pwm_duty@reg_val,w
  1063     0215  00DE               	movwf	??_set_pwm_duty
  1064     0216  1003               	clrc
  1065     0217  0CDF               	rrf	??_set_pwm_duty+1,f
  1066     0218  0CDE               	rrf	??_set_pwm_duty,f
  1067     0219  1003               	clrc
  1068     021A  0CDF               	rrf	??_set_pwm_duty+1,f
  1069     021B  0CDE               	rrf	??_set_pwm_duty,f
  1070     021C  085E               	movf	??_set_pwm_duty,w
  1071     021D  0095               	movwf	21	;volatile
  1072     021E                     l1450:
  1073                           
  1074                           ;pwm.c: 30:     CCP1CON = (CCP1CON & 0xCF) | ((reg_val & 0x03) << 4);
  1075     021E  0867               	movf	set_pwm_duty@reg_val,w
  1076     021F  3903               	andlw	3
  1077     0220  00DE               	movwf	??_set_pwm_duty
  1078     0221  3004               	movlw	4
  1079     0222                     u1985:
  1080     0222  1003               	clrc
  1081     0223  0DDE               	rlf	??_set_pwm_duty,f
  1082     0224  3EFF               	addlw	-1
  1083     0225  1D03               	skipz
  1084     0226  2A22               	goto	u1985
  1085     0227  0817               	movf	23,w	;volatile
  1086     0228  39CF               	andlw	207
  1087     0229  045E               	iorwf	??_set_pwm_duty,w
  1088     022A  0097               	movwf	23	;volatile
  1089     022B                     l59:
  1090     022B  0008               	return
  1091     022C                     __end_of_set_pwm_duty:
  1092                           
  1093                           	psect	text4
  1094     022C                     __ptext4:	
  1095 ;; *************** function ___xxtofl *****************
  1096 ;; Defined at:
  1097 ;;		line 10 in file "/opt/microchip/xc8/v3.10/pic/sources/c99/common/xxtofl.c"
  1098 ;; Parameters:    Size  Location     Type
  1099 ;;  sign            1    wreg     unsigned char 
  1100 ;;  val             4    0[COMMON] long 
  1101 ;; Auto vars:     Size  Location     Type
  1102 ;;  sign            1    8[COMMON] unsigned char 
  1103 ;;  arg             4   10[COMMON] unsigned long 
  1104 ;;  exp             1    9[COMMON] unsigned char 
  1105 ;; Return value:  Size  Location     Type
  1106 ;;                  4    0[COMMON] unsigned char 
  1107 ;; Registers used:
  1108 ;;		wreg, status,2, status,0
  1109 ;; Tracked objects:
  1110 ;;		On entry : 0/0
  1111 ;;		On exit  : 0/0
  1112 ;;		Unchanged: 0/0
  1113 ;; Data sizes:     COMMON   BANK0   BANK1   BANK3   BANK2
  1114 ;;      Params:         4       0       0       0       0
  1115 ;;      Locals:         6       0       0       0       0
  1116 ;;      Temps:          4       0       0       0       0
  1117 ;;      Totals:        14       0       0       0       0
  1118 ;;Total ram usage:       14 bytes
  1119 ;; Hardware stack levels used: 1
  1120 ;; This function calls:
  1121 ;;		Nothing
  1122 ;; This function is called by:
  1123 ;;		_set_pwm_duty
  1124 ;; This function uses a non-reentrant model
  1125 ;;
  1126                           
  1127     022C                     ___xxtofl:	
  1128                           ;psect for function ___xxtofl
  1129                           
  1130                           
  1131                           ;incstack = 0
  1132                           ; Regs used in ___xxtofl: [wreg+status,2+status,0]
  1133                           ;___xxtofl@sign stored from wreg
  1134     022C  00F8               	movwf	___xxtofl@sign
  1135     022D                     l1404:
  1136     022D  0878               	movf	___xxtofl@sign,w
  1137     022E  1903               	btfsc	3,2
  1138     022F  2A31               	goto	u1841
  1139     0230  2A32               	goto	u1840
  1140     0231                     u1841:
  1141     0231  2A46               	goto	l1410
  1142     0232                     u1840:
  1143     0232                     l1406:
  1144     0232  1FF3               	btfss	___xxtofl@val+3,7
  1145     0233  2A35               	goto	u1851
  1146     0234  2A36               	goto	u1850
  1147     0235                     u1851:
  1148     0235  2A46               	goto	l1410
  1149     0236                     u1850:
  1150     0236                     l1408:
  1151     0236  0970               	comf	___xxtofl@val,w
  1152     0237  00FA               	movwf	___xxtofl@arg
  1153     0238  0971               	comf	___xxtofl@val+1,w
  1154     0239  00FB               	movwf	___xxtofl@arg+1
  1155     023A  0972               	comf	___xxtofl@val+2,w
  1156     023B  00FC               	movwf	___xxtofl@arg+2
  1157     023C  0973               	comf	___xxtofl@val+3,w
  1158     023D  00FD               	movwf	___xxtofl@arg+3
  1159     023E  0AFA               	incf	___xxtofl@arg,f
  1160     023F  1903               	skipnz
  1161     0240  0AFB               	incf	___xxtofl@arg+1,f
  1162     0241  1903               	skipnz
  1163     0242  0AFC               	incf	___xxtofl@arg+2,f
  1164     0243  1903               	skipnz
  1165     0244  0AFD               	incf	___xxtofl@arg+3,f
  1166     0245  2A4E               	goto	l603
  1167     0246                     l1410:
  1168     0246  0873               	movf	___xxtofl@val+3,w
  1169     0247  00FD               	movwf	___xxtofl@arg+3
  1170     0248  0872               	movf	___xxtofl@val+2,w
  1171     0249  00FC               	movwf	___xxtofl@arg+2
  1172     024A  0871               	movf	___xxtofl@val+1,w
  1173     024B  00FB               	movwf	___xxtofl@arg+1
  1174     024C  0870               	movf	___xxtofl@val,w
  1175     024D  00FA               	movwf	___xxtofl@arg
  1176     024E                     l603:
  1177     024E  0873               	movf	___xxtofl@val+3,w
  1178     024F  0472               	iorwf	___xxtofl@val+2,w
  1179     0250  0471               	iorwf	___xxtofl@val+1,w
  1180     0251  0470               	iorwf	___xxtofl@val,w
  1181     0252  1D03               	skipz
  1182     0253  2A55               	goto	u1861
  1183     0254  2A56               	goto	u1860
  1184     0255                     u1861:
  1185     0255  2A5F               	goto	l604
  1186     0256                     u1860:
  1187     0256                     l1412:
  1188     0256  3000               	movlw	0
  1189     0257  00F3               	movwf	?___xxtofl+3
  1190     0258  3000               	movlw	0
  1191     0259  00F2               	movwf	?___xxtofl+2
  1192     025A  3000               	movlw	0
  1193     025B  00F1               	movwf	?___xxtofl+1
  1194     025C  3000               	movlw	0
  1195     025D  00F0               	movwf	?___xxtofl
  1196     025E  2ADF               	goto	l605
  1197     025F                     l604:
  1198     025F  3096               	movlw	150
  1199     0260  00F9               	movwf	___xxtofl@exp
  1200     0261  2A6D               	goto	l1418
  1201     0262                     l1416:
  1202     0262  3001               	movlw	1
  1203     0263  07F9               	addwf	___xxtofl@exp,f
  1204     0264  3001               	movlw	1
  1205     0265                     u1875:
  1206     0265  1003               	clrc
  1207     0266  0CFD               	rrf	___xxtofl@arg+3,f
  1208     0267  0CFC               	rrf	___xxtofl@arg+2,f
  1209     0268  0CFB               	rrf	___xxtofl@arg+1,f
  1210     0269  0CFA               	rrf	___xxtofl@arg,f
  1211     026A  3EFF               	addlw	-1
  1212     026B  1D03               	skipz
  1213     026C  2A65               	goto	u1875
  1214     026D                     l1418:
  1215     026D  30FE               	movlw	254
  1216     026E  057D               	andwf	___xxtofl@arg+3,w
  1217     026F  1D03               	btfss	3,2
  1218     0270  2A72               	goto	u1881
  1219     0271  2A73               	goto	u1880
  1220     0272                     u1881:
  1221     0272  2A62               	goto	l1416
  1222     0273                     u1880:
  1223     0273  2A8D               	goto	l609
  1224     0274                     l1420:
  1225     0274  3001               	movlw	1
  1226     0275  07F9               	addwf	___xxtofl@exp,f
  1227     0276                     l1422:
  1228     0276  3001               	movlw	1
  1229     0277  07FA               	addwf	___xxtofl@arg,f
  1230     0278  3000               	movlw	0
  1231     0279  1803               	skipnc
  1232     027A  3001               	movlw	1
  1233     027B  07FB               	addwf	___xxtofl@arg+1,f
  1234     027C  3000               	movlw	0
  1235     027D  1803               	skipnc
  1236     027E  3001               	movlw	1
  1237     027F  07FC               	addwf	___xxtofl@arg+2,f
  1238     0280  3000               	movlw	0
  1239     0281  1803               	skipnc
  1240     0282  3001               	movlw	1
  1241     0283  07FD               	addwf	___xxtofl@arg+3,f
  1242     0284                     l1424:
  1243     0284  3001               	movlw	1
  1244     0285                     u1895:
  1245     0285  1003               	clrc
  1246     0286  0CFD               	rrf	___xxtofl@arg+3,f
  1247     0287  0CFC               	rrf	___xxtofl@arg+2,f
  1248     0288  0CFB               	rrf	___xxtofl@arg+1,f
  1249     0289  0CFA               	rrf	___xxtofl@arg,f
  1250     028A  3EFF               	addlw	-1
  1251     028B  1D03               	skipz
  1252     028C  2A85               	goto	u1895
  1253     028D                     l609:
  1254     028D  30FF               	movlw	255
  1255     028E  057D               	andwf	___xxtofl@arg+3,w
  1256     028F  1D03               	btfss	3,2
  1257     0290  2A92               	goto	u1901
  1258     0291  2A93               	goto	u1900
  1259     0292                     u1901:
  1260     0292  2A74               	goto	l1420
  1261     0293                     u1900:
  1262     0293  2A9F               	goto	l1428
  1263     0294                     l1426:
  1264     0294  3001               	movlw	1
  1265     0295  02F9               	subwf	___xxtofl@exp,f
  1266     0296  3001               	movlw	1
  1267     0297  00F4               	movwf	??___xxtofl
  1268     0298                     u1915:
  1269     0298  1003               	clrc
  1270     0299  0DFA               	rlf	___xxtofl@arg,f
  1271     029A  0DFB               	rlf	___xxtofl@arg+1,f
  1272     029B  0DFC               	rlf	___xxtofl@arg+2,f
  1273     029C  0DFD               	rlf	___xxtofl@arg+3,f
  1274     029D  0BF4               	decfsz	??___xxtofl,f
  1275     029E  2A98               	goto	u1915
  1276     029F                     l1428:
  1277     029F  1BFC               	btfsc	___xxtofl@arg+2,7
  1278     02A0  2AA2               	goto	u1921
  1279     02A1  2AA3               	goto	u1920
  1280     02A2                     u1921:
  1281     02A2  2AA9               	goto	l616
  1282     02A3                     u1920:
  1283     02A3                     l1430:
  1284     02A3  3002               	movlw	2
  1285     02A4  0279               	subwf	___xxtofl@exp,w
  1286     02A5  1803               	skipnc
  1287     02A6  2AA8               	goto	u1931
  1288     02A7  2AA9               	goto	u1930
  1289     02A8                     u1931:
  1290     02A8  2A94               	goto	l1426
  1291     02A9                     u1930:
  1292     02A9                     l616:
  1293     02A9  1879               	btfsc	___xxtofl@exp,0
  1294     02AA  2AAC               	goto	u1941
  1295     02AB  2AAD               	goto	u1940
  1296     02AC                     u1941:
  1297     02AC  2AB5               	goto	l617
  1298     02AD                     u1940:
  1299     02AD                     l1432:
  1300     02AD  30FF               	movlw	255
  1301     02AE  05FA               	andwf	___xxtofl@arg,f
  1302     02AF  30FF               	movlw	255
  1303     02B0  05FB               	andwf	___xxtofl@arg+1,f
  1304     02B1  307F               	movlw	127
  1305     02B2  05FC               	andwf	___xxtofl@arg+2,f
  1306     02B3  30FF               	movlw	255
  1307     02B4  05FD               	andwf	___xxtofl@arg+3,f
  1308     02B5                     l617:
  1309     02B5  1003               	clrc
  1310     02B6  0CF9               	rrf	___xxtofl@exp,f
  1311     02B7                     l1434:
  1312     02B7  0879               	movf	___xxtofl@exp,w
  1313     02B8  00F4               	movwf	??___xxtofl
  1314     02B9  01F5               	clrf	??___xxtofl+1
  1315     02BA  01F6               	clrf	??___xxtofl+2
  1316     02BB  01F7               	clrf	??___xxtofl+3
  1317     02BC  3018               	movlw	24
  1318     02BD                     u1955:
  1319     02BD  1003               	clrc
  1320     02BE  0DF4               	rlf	??___xxtofl,f
  1321     02BF  0DF5               	rlf	??___xxtofl+1,f
  1322     02C0  0DF6               	rlf	??___xxtofl+2,f
  1323     02C1  0DF7               	rlf	??___xxtofl+3,f
  1324     02C2                     u1950:
  1325     02C2  3EFF               	addlw	-1
  1326     02C3  1D03               	skipz
  1327     02C4  2ABD               	goto	u1955
  1328     02C5  0874               	movf	??___xxtofl,w
  1329     02C6  04FA               	iorwf	___xxtofl@arg,f
  1330     02C7  0875               	movf	??___xxtofl+1,w
  1331     02C8  04FB               	iorwf	___xxtofl@arg+1,f
  1332     02C9  0876               	movf	??___xxtofl+2,w
  1333     02CA  04FC               	iorwf	___xxtofl@arg+2,f
  1334     02CB  0877               	movf	??___xxtofl+3,w
  1335     02CC  04FD               	iorwf	___xxtofl@arg+3,f
  1336     02CD                     l1436:
  1337     02CD  0878               	movf	___xxtofl@sign,w
  1338     02CE  1903               	btfsc	3,2
  1339     02CF  2AD1               	goto	u1961
  1340     02D0  2AD2               	goto	u1960
  1341     02D1                     u1961:
  1342     02D1  2AD7               	goto	l1442
  1343     02D2                     u1960:
  1344     02D2                     l1438:
  1345     02D2  1FF3               	btfss	___xxtofl@val+3,7
  1346     02D3  2AD5               	goto	u1971
  1347     02D4  2AD6               	goto	u1970
  1348     02D5                     u1971:
  1349     02D5  2AD7               	goto	l1442
  1350     02D6                     u1970:
  1351     02D6                     l1440:
  1352     02D6  17FD               	bsf	___xxtofl@arg+3,7
  1353     02D7                     l1442:
  1354     02D7  087D               	movf	___xxtofl@arg+3,w
  1355     02D8  00F3               	movwf	?___xxtofl+3
  1356     02D9  087C               	movf	___xxtofl@arg+2,w
  1357     02DA  00F2               	movwf	?___xxtofl+2
  1358     02DB  087B               	movf	___xxtofl@arg+1,w
  1359     02DC  00F1               	movwf	?___xxtofl+1
  1360     02DD  087A               	movf	___xxtofl@arg,w
  1361     02DE  00F0               	movwf	?___xxtofl
  1362     02DF                     l605:
  1363     02DF  0008               	return
  1364     02E0                     __end_of___xxtofl:
  1365                           
  1366                           	psect	text5
  1367     0124                     __ptext5:	
  1368 ;; *************** function ___fltol *****************
  1369 ;; Defined at:
  1370 ;;		line 43 in file "/opt/microchip/xc8/v3.10/pic/sources/c99/common/fltol.c"
  1371 ;; Parameters:    Size  Location     Type
  1372 ;;  f1              4   52[BANK0 ] unsigned char 
  1373 ;; Auto vars:     Size  Location     Type
  1374 ;;  exp1            1   61[BANK0 ] unsigned char 
  1375 ;;  sign1           1   60[BANK0 ] unsigned char 
  1376 ;; Return value:  Size  Location     Type
  1377 ;;                  4   52[BANK0 ] long 
  1378 ;; Registers used:
  1379 ;;		wreg, status,2, status,0
  1380 ;; Tracked objects:
  1381 ;;		On entry : 0/0
  1382 ;;		On exit  : 0/0
  1383 ;;		Unchanged: 0/0
  1384 ;; Data sizes:     COMMON   BANK0   BANK1   BANK3   BANK2
  1385 ;;      Params:         0       4       0       0       0
  1386 ;;      Locals:         0       2       0       0       0
  1387 ;;      Temps:          0       4       0       0       0
  1388 ;;      Totals:         0      10       0       0       0
  1389 ;;Total ram usage:       10 bytes
  1390 ;; Hardware stack levels used: 1
  1391 ;; This function calls:
  1392 ;;		Nothing
  1393 ;; This function is called by:
  1394 ;;		_set_pwm_duty
  1395 ;; This function uses a non-reentrant model
  1396 ;;
  1397                           
  1398     0124                     ___fltol:	
  1399                           ;psect for function ___fltol
  1400                           
  1401     0124                     l1082:	
  1402                           ;incstack = 0
  1403                           ; Regs used in ___fltol: [wreg+status,2+status,0]
  1404                           
  1405     0124  1003               	clrc
  1406     0125  1283               	bcf	3,5	;RP0=0, select bank0
  1407     0126  1303               	bcf	3,6	;RP1=0, select bank0
  1408     0127  0D56               	rlf	___fltol@f1+2,w
  1409     0128  0D57               	rlf	___fltol@f1+3,w
  1410     0129  00DD               	movwf	___fltol@exp1
  1411     012A  085D               	movf	___fltol@exp1,w
  1412     012B  1D03               	btfss	3,2
  1413     012C  292E               	goto	u1081
  1414     012D  292F               	goto	u1080
  1415     012E                     u1081:
  1416     012E  2938               	goto	l1088
  1417     012F                     u1080:
  1418     012F                     l1084:
  1419     012F  3000               	movlw	0
  1420     0130  00D7               	movwf	?___fltol+3
  1421     0131  3000               	movlw	0
  1422     0132  00D6               	movwf	?___fltol+2
  1423     0133  3000               	movlw	0
  1424     0134  00D5               	movwf	?___fltol+1
  1425     0135  3000               	movlw	0
  1426     0136  00D4               	movwf	?___fltol
  1427     0137  2999               	goto	l356
  1428     0138                     l1088:
  1429     0138  0854               	movf	___fltol@f1,w
  1430     0139  00D8               	movwf	??___fltol
  1431     013A  0855               	movf	___fltol@f1+1,w
  1432     013B  00D9               	movwf	??___fltol+1
  1433     013C  0856               	movf	___fltol@f1+2,w
  1434     013D  00DA               	movwf	??___fltol+2
  1435     013E  0857               	movf	___fltol@f1+3,w
  1436     013F  00DB               	movwf	??___fltol+3
  1437     0140  301F               	movlw	31
  1438     0141                     u1095:
  1439     0141  1003               	clrc
  1440     0142  0CDB               	rrf	??___fltol+3,f
  1441     0143  0CDA               	rrf	??___fltol+2,f
  1442     0144  0CD9               	rrf	??___fltol+1,f
  1443     0145  0CD8               	rrf	??___fltol,f
  1444     0146                     u1090:
  1445     0146  3EFF               	addlw	-1
  1446     0147  1D03               	skipz
  1447     0148  2941               	goto	u1095
  1448     0149  0858               	movf	??___fltol,w
  1449     014A  00DC               	movwf	___fltol@sign1
  1450     014B                     l1090:
  1451     014B  17D6               	bsf	___fltol@f1+2,7
  1452     014C                     l1092:
  1453     014C  30FF               	movlw	255
  1454     014D  05D4               	andwf	___fltol@f1,f
  1455     014E  30FF               	movlw	255
  1456     014F  05D5               	andwf	___fltol@f1+1,f
  1457     0150  30FF               	movlw	255
  1458     0151  05D6               	andwf	___fltol@f1+2,f
  1459     0152  3000               	movlw	0
  1460     0153  05D7               	andwf	___fltol@f1+3,f
  1461     0154                     l1094:
  1462     0154  3096               	movlw	150
  1463     0155  02DD               	subwf	___fltol@exp1,f
  1464     0156                     l1096:
  1465     0156  1FDD               	btfss	___fltol@exp1,7
  1466     0157  2959               	goto	u1101
  1467     0158  295A               	goto	u1100
  1468     0159                     u1101:
  1469     0159  2972               	goto	l1106
  1470     015A                     u1100:
  1471     015A                     l1098:
  1472     015A  085D               	movf	___fltol@exp1,w
  1473     015B  3A80               	xorlw	128
  1474     015C  3E97               	addlw	151
  1475     015D  1803               	skipnc
  1476     015E  2960               	goto	u1111
  1477     015F  2961               	goto	u1110
  1478     0160                     u1111:
  1479     0160  2962               	goto	l1104
  1480     0161                     u1110:
  1481     0161  292F               	goto	l1084
  1482     0162                     l1104:
  1483     0162  3001               	movlw	1
  1484     0163                     u1125:
  1485     0163  1003               	clrc
  1486     0164  0CD7               	rrf	___fltol@f1+3,f
  1487     0165  0CD6               	rrf	___fltol@f1+2,f
  1488     0166  0CD5               	rrf	___fltol@f1+1,f
  1489     0167  0CD4               	rrf	___fltol@f1,f
  1490     0168  3EFF               	addlw	-1
  1491     0169  1D03               	skipz
  1492     016A  2963               	goto	u1125
  1493     016B  3001               	movlw	1
  1494     016C  07DD               	addwf	___fltol@exp1,f
  1495     016D  1D03               	btfss	3,2
  1496     016E  2970               	goto	u1131
  1497     016F  2971               	goto	u1130
  1498     0170                     u1131:
  1499     0170  2962               	goto	l1104
  1500     0171                     u1130:
  1501     0171  2989               	goto	l1114
  1502     0172                     l1106:
  1503     0172  3020               	movlw	32
  1504     0173  025D               	subwf	___fltol@exp1,w
  1505     0174  1C03               	skipc
  1506     0175  2977               	goto	u1141
  1507     0176  2978               	goto	u1140
  1508     0177                     u1141:
  1509     0177  2984               	goto	l363
  1510     0178                     u1140:
  1511     0178  292F               	goto	l1084
  1512     0179                     l1112:
  1513     0179  3001               	movlw	1
  1514     017A  00D8               	movwf	??___fltol
  1515     017B                     u1155:
  1516     017B  1003               	clrc
  1517     017C  0DD4               	rlf	___fltol@f1,f
  1518     017D  0DD5               	rlf	___fltol@f1+1,f
  1519     017E  0DD6               	rlf	___fltol@f1+2,f
  1520     017F  0DD7               	rlf	___fltol@f1+3,f
  1521     0180  0BD8               	decfsz	??___fltol,f
  1522     0181  297B               	goto	u1155
  1523     0182  3001               	movlw	1
  1524     0183  02DD               	subwf	___fltol@exp1,f
  1525     0184                     l363:
  1526     0184  085D               	movf	___fltol@exp1,w
  1527     0185  1D03               	btfss	3,2
  1528     0186  2988               	goto	u1161
  1529     0187  2989               	goto	u1160
  1530     0188                     u1161:
  1531     0188  2979               	goto	l1112
  1532     0189                     u1160:
  1533     0189                     l1114:
  1534     0189  085C               	movf	___fltol@sign1,w
  1535     018A  1903               	btfsc	3,2
  1536     018B  298D               	goto	u1171
  1537     018C  298E               	goto	u1170
  1538     018D                     u1171:
  1539     018D  2999               	goto	l366
  1540     018E                     u1170:
  1541     018E                     l1116:
  1542     018E  09D4               	comf	___fltol@f1,f
  1543     018F  09D5               	comf	___fltol@f1+1,f
  1544     0190  09D6               	comf	___fltol@f1+2,f
  1545     0191  09D7               	comf	___fltol@f1+3,f
  1546     0192  0AD4               	incf	___fltol@f1,f
  1547     0193  1903               	skipnz
  1548     0194  0AD5               	incf	___fltol@f1+1,f
  1549     0195  1903               	skipnz
  1550     0196  0AD6               	incf	___fltol@f1+2,f
  1551     0197  1903               	skipnz
  1552     0198  0AD7               	incf	___fltol@f1+3,f
  1553     0199                     l366:
  1554     0199                     l356:
  1555     0199  0008               	return
  1556     019A                     __end_of___fltol:
  1557                           
  1558                           	psect	text6
  1559     04AA                     __ptext6:	
  1560 ;; *************** function ___flmul *****************
  1561 ;; Defined at:
  1562 ;;		line 8 in file "/opt/microchip/xc8/v3.10/pic/sources/c99/common/sprcmul.c"
  1563 ;; Parameters:    Size  Location     Type
  1564 ;;  b               4   26[BANK0 ] long 
  1565 ;;  a               4   30[BANK0 ] long 
  1566 ;; Auto vars:     Size  Location     Type
  1567 ;;  prod            4   46[BANK0 ] struct .
  1568 ;;  grs             4   40[BANK0 ] unsigned long 
  1569 ;;  temp            2   50[BANK0 ] struct .
  1570 ;;  bexp            1   45[BANK0 ] unsigned char 
  1571 ;;  aexp            1   44[BANK0 ] unsigned char 
  1572 ;;  sign            1   39[BANK0 ] unsigned char 
  1573 ;; Return value:  Size  Location     Type
  1574 ;;                  4   26[BANK0 ] unsigned char 
  1575 ;; Registers used:
  1576 ;;		wreg, status,2, status,0, pclath, btemp1, cstack
  1577 ;; Tracked objects:
  1578 ;;		On entry : 0/0
  1579 ;;		On exit  : 0/0
  1580 ;;		Unchanged: 0/0
  1581 ;; Data sizes:     COMMON   BANK0   BANK1   BANK3   BANK2
  1582 ;;      Params:         0       8       0       0       0
  1583 ;;      Locals:         0      13       0       0       0
  1584 ;;      Temps:          0       5       0       0       0
  1585 ;;      Totals:         0      26       0       0       0
  1586 ;;Total ram usage:       26 bytes
  1587 ;; Hardware stack levels used: 1
  1588 ;; Hardware stack levels required when called: 1
  1589 ;; This function calls:
  1590 ;;		__Umul8_16
  1591 ;; This function is called by:
  1592 ;;		_set_pwm_duty
  1593 ;; This function uses a non-reentrant model
  1594 ;;
  1595                           
  1596     04AA                     ___flmul:	
  1597                           ;psect for function ___flmul
  1598                           
  1599     04AA                     l1262:	
  1600                           ;incstack = 0
  1601                           ; Regs used in ___flmul: [wreg+status,2+status,0+pclath+btemp1+cstack]
  1602                           
  1603     04AA  1283               	bcf	3,5	;RP0=0, select bank0
  1604     04AB  1303               	bcf	3,6	;RP1=0, select bank0
  1605     04AC  083D               	movf	___flmul@b+3,w
  1606     04AD  00C7               	movwf	___flmul@sign
  1607     04AE                     l1264:
  1608     04AE  3080               	movlw	128
  1609     04AF  05C7               	andwf	___flmul@sign,f
  1610     04B0                     l1266:
  1611     04B0  083D               	movf	___flmul@b+3,w
  1612     04B1  00C2               	movwf	??___flmul
  1613     04B2  0742               	addwf	??___flmul,w
  1614     04B3  00CD               	movwf	___flmul@bexp
  1615     04B4                     l1268:
  1616     04B4  1FBC               	btfss	___flmul@b+2,7
  1617     04B5  2CB7               	goto	u1471
  1618     04B6  2CB8               	goto	u1470
  1619     04B7                     u1471:
  1620     04B7  2CB9               	goto	l1272
  1621     04B8                     u1470:
  1622     04B8                     l1270:
  1623     04B8  144D               	bsf	___flmul@bexp,0
  1624     04B9                     l1272:
  1625     04B9  084D               	movf	___flmul@bexp,w
  1626     04BA  1903               	btfsc	3,2
  1627     04BB  2CBD               	goto	u1481
  1628     04BC  2CBE               	goto	u1480
  1629     04BD                     u1481:
  1630     04BD  2CCD               	goto	l1280
  1631     04BE                     u1480:
  1632     04BE                     l1274:
  1633     04BE  0A4D               	incf	___flmul@bexp,w
  1634     04BF  1D03               	btfss	3,2
  1635     04C0  2CC2               	goto	u1491
  1636     04C1  2CC3               	goto	u1490
  1637     04C2                     u1491:
  1638     04C2  2CCB               	goto	l1278
  1639     04C3                     u1490:
  1640     04C3                     l1276:
  1641     04C3  3000               	movlw	0
  1642     04C4  00BD               	movwf	___flmul@b+3
  1643     04C5  3000               	movlw	0
  1644     04C6  00BC               	movwf	___flmul@b+2
  1645     04C7  3000               	movlw	0
  1646     04C8  00BB               	movwf	___flmul@b+1
  1647     04C9  3000               	movlw	0
  1648     04CA  00BA               	movwf	___flmul@b
  1649     04CB                     l1278:
  1650     04CB  17BC               	bsf	___flmul@b+2,7
  1651     04CC  2CD5               	goto	l1282
  1652     04CD                     l1280:
  1653     04CD  3000               	movlw	0
  1654     04CE  00BD               	movwf	___flmul@b+3
  1655     04CF  3000               	movlw	0
  1656     04D0  00BC               	movwf	___flmul@b+2
  1657     04D1  3000               	movlw	0
  1658     04D2  00BB               	movwf	___flmul@b+1
  1659     04D3  3000               	movlw	0
  1660     04D4  00BA               	movwf	___flmul@b
  1661     04D5                     l1282:
  1662     04D5  0841               	movf	___flmul@a+3,w
  1663     04D6  3980               	andlw	128
  1664     04D7  06C7               	xorwf	___flmul@sign,f
  1665     04D8                     l1284:
  1666     04D8  0841               	movf	___flmul@a+3,w
  1667     04D9  00C2               	movwf	??___flmul
  1668     04DA  0742               	addwf	??___flmul,w
  1669     04DB  00CC               	movwf	___flmul@aexp
  1670     04DC                     l1286:
  1671     04DC  1FC0               	btfss	___flmul@a+2,7
  1672     04DD  2CDF               	goto	u1501
  1673     04DE  2CE0               	goto	u1500
  1674     04DF                     u1501:
  1675     04DF  2CE1               	goto	l1290
  1676     04E0                     u1500:
  1677     04E0                     l1288:
  1678     04E0  144C               	bsf	___flmul@aexp,0
  1679     04E1                     l1290:
  1680     04E1  084C               	movf	___flmul@aexp,w
  1681     04E2  1903               	btfsc	3,2
  1682     04E3  2CE5               	goto	u1511
  1683     04E4  2CE6               	goto	u1510
  1684     04E5                     u1511:
  1685     04E5  2CF5               	goto	l1298
  1686     04E6                     u1510:
  1687     04E6                     l1292:
  1688     04E6  0A4C               	incf	___flmul@aexp,w
  1689     04E7  1D03               	btfss	3,2
  1690     04E8  2CEA               	goto	u1521
  1691     04E9  2CEB               	goto	u1520
  1692     04EA                     u1521:
  1693     04EA  2CF3               	goto	l1296
  1694     04EB                     u1520:
  1695     04EB                     l1294:
  1696     04EB  3000               	movlw	0
  1697     04EC  00C1               	movwf	___flmul@a+3
  1698     04ED  3000               	movlw	0
  1699     04EE  00C0               	movwf	___flmul@a+2
  1700     04EF  3000               	movlw	0
  1701     04F0  00BF               	movwf	___flmul@a+1
  1702     04F1  3000               	movlw	0
  1703     04F2  00BE               	movwf	___flmul@a
  1704     04F3                     l1296:
  1705     04F3  17C0               	bsf	___flmul@a+2,7
  1706     04F4  2CFD               	goto	l1300
  1707     04F5                     l1298:
  1708     04F5  3000               	movlw	0
  1709     04F6  00C1               	movwf	___flmul@a+3
  1710     04F7  3000               	movlw	0
  1711     04F8  00C0               	movwf	___flmul@a+2
  1712     04F9  3000               	movlw	0
  1713     04FA  00BF               	movwf	___flmul@a+1
  1714     04FB  3000               	movlw	0
  1715     04FC  00BE               	movwf	___flmul@a
  1716     04FD                     l1300:
  1717     04FD  084C               	movf	___flmul@aexp,w
  1718     04FE  1903               	btfsc	3,2
  1719     04FF  2D01               	goto	u1531
  1720     0500  2D02               	goto	u1530
  1721     0501                     u1531:
  1722     0501  2D07               	goto	l1304
  1723     0502                     u1530:
  1724     0502                     l1302:
  1725     0502  084D               	movf	___flmul@bexp,w
  1726     0503  1D03               	btfss	3,2
  1727     0504  2D06               	goto	u1541
  1728     0505  2D07               	goto	u1540
  1729     0506                     u1541:
  1730     0506  2D10               	goto	l1308
  1731     0507                     u1540:
  1732     0507                     l1304:
  1733     0507  3000               	movlw	0
  1734     0508  00BD               	movwf	?___flmul+3
  1735     0509  3000               	movlw	0
  1736     050A  00BC               	movwf	?___flmul+2
  1737     050B  3000               	movlw	0
  1738     050C  00BB               	movwf	?___flmul+1
  1739     050D  3000               	movlw	0
  1740     050E  00BA               	movwf	?___flmul
  1741     050F  2FEB               	goto	l559
  1742     0510                     l1308:
  1743     0510  083A               	movf	___flmul@b,w
  1744     0511  00F0               	movwf	__Umul8_16@multiplicand
  1745     0512  0840               	movf	___flmul@a+2,w
  1746     0513  120A  118A  206C  120A  118A  	fcall	__Umul8_16
  1747     0518  0871               	movf	?__Umul8_16+1,w
  1748     0519  1283               	bcf	3,5	;RP0=0, select bank0
  1749     051A  1303               	bcf	3,6	;RP1=0, select bank0
  1750     051B  00D3               	movwf	___flmul@temp+1
  1751     051C  0870               	movf	?__Umul8_16,w
  1752     051D  00D2               	movwf	___flmul@temp
  1753     051E                     l1310:
  1754     051E  0852               	movf	___flmul@temp,w
  1755     051F  00C2               	movwf	??___flmul
  1756     0520  01C3               	clrf	??___flmul+1
  1757     0521  01C4               	clrf	??___flmul+2
  1758     0522  01C5               	clrf	??___flmul+3
  1759     0523  0845               	movf	??___flmul+3,w
  1760     0524  00CB               	movwf	___flmul@grs+3
  1761     0525  0844               	movf	??___flmul+2,w
  1762     0526  00CA               	movwf	___flmul@grs+2
  1763     0527  0843               	movf	??___flmul+1,w
  1764     0528  00C9               	movwf	___flmul@grs+1
  1765     0529  0842               	movf	??___flmul,w
  1766     052A  00C8               	movwf	___flmul@grs
  1767     052B                     l1312:
  1768     052B  0853               	movf	___flmul@temp+1,w
  1769     052C  00C2               	movwf	??___flmul
  1770     052D  01C3               	clrf	??___flmul+1
  1771     052E  01C4               	clrf	??___flmul+2
  1772     052F  01C5               	clrf	??___flmul+3
  1773     0530  0845               	movf	??___flmul+3,w
  1774     0531  00D1               	movwf	___flmul@prod+3
  1775     0532  0844               	movf	??___flmul+2,w
  1776     0533  00D0               	movwf	___flmul@prod+2
  1777     0534  0843               	movf	??___flmul+1,w
  1778     0535  00CF               	movwf	___flmul@prod+1
  1779     0536  0842               	movf	??___flmul,w
  1780     0537  00CE               	movwf	___flmul@prod
  1781     0538  083B               	movf	___flmul@b+1,w
  1782     0539  00F0               	movwf	__Umul8_16@multiplicand
  1783     053A  083F               	movf	___flmul@a+1,w
  1784     053B  120A  118A  206C  120A  118A  	fcall	__Umul8_16
  1785     0540  0871               	movf	?__Umul8_16+1,w
  1786     0541  1283               	bcf	3,5	;RP0=0, select bank0
  1787     0542  1303               	bcf	3,6	;RP1=0, select bank0
  1788     0543  00D3               	movwf	___flmul@temp+1
  1789     0544  0870               	movf	?__Umul8_16,w
  1790     0545  00D2               	movwf	___flmul@temp
  1791     0546                     l1314:
  1792     0546  0852               	movf	___flmul@temp,w
  1793     0547  00C2               	movwf	??___flmul
  1794     0548  01C3               	clrf	??___flmul+1
  1795     0549  01C4               	clrf	??___flmul+2
  1796     054A  01C5               	clrf	??___flmul+3
  1797     054B  0842               	movf	??___flmul,w
  1798     054C  07C8               	addwf	___flmul@grs,f
  1799     054D  0843               	movf	??___flmul+1,w
  1800     054E  1103               	clrz
  1801     054F  1803               	skipnc
  1802     0550  3E01               	addlw	1
  1803     0551  1903               	skipnz
  1804     0552  2D54               	goto	u1551
  1805     0553  07C9               	addwf	___flmul@grs+1,f
  1806     0554                     u1551:
  1807     0554  0844               	movf	??___flmul+2,w
  1808     0555  1103               	clrz
  1809     0556  1803               	skipnc
  1810     0557  3E01               	addlw	1
  1811     0558  1903               	skipnz
  1812     0559  2D5B               	goto	u1552
  1813     055A  07CA               	addwf	___flmul@grs+2,f
  1814     055B                     u1552:
  1815     055B  0845               	movf	??___flmul+3,w
  1816     055C  1103               	clrz
  1817     055D  1803               	skipnc
  1818     055E  3E01               	addlw	1
  1819     055F  1903               	skipnz
  1820     0560  2D62               	goto	u1553
  1821     0561  07CB               	addwf	___flmul@grs+3,f
  1822     0562                     u1553:
  1823     0562                     l1316:
  1824     0562  0853               	movf	___flmul@temp+1,w
  1825     0563  00C2               	movwf	??___flmul
  1826     0564  01C3               	clrf	??___flmul+1
  1827     0565  01C4               	clrf	??___flmul+2
  1828     0566  01C5               	clrf	??___flmul+3
  1829     0567  0842               	movf	??___flmul,w
  1830     0568  07CE               	addwf	___flmul@prod,f
  1831     0569  0843               	movf	??___flmul+1,w
  1832     056A  1103               	clrz
  1833     056B  1803               	skipnc
  1834     056C  3E01               	addlw	1
  1835     056D  1903               	skipnz
  1836     056E  2D70               	goto	u1561
  1837     056F  07CF               	addwf	___flmul@prod+1,f
  1838     0570                     u1561:
  1839     0570  0844               	movf	??___flmul+2,w
  1840     0571  1103               	clrz
  1841     0572  1803               	skipnc
  1842     0573  3E01               	addlw	1
  1843     0574  1903               	skipnz
  1844     0575  2D77               	goto	u1562
  1845     0576  07D0               	addwf	___flmul@prod+2,f
  1846     0577                     u1562:
  1847     0577  0845               	movf	??___flmul+3,w
  1848     0578  1103               	clrz
  1849     0579  1803               	skipnc
  1850     057A  3E01               	addlw	1
  1851     057B  1903               	skipnz
  1852     057C  2D7E               	goto	u1563
  1853     057D  07D1               	addwf	___flmul@prod+3,f
  1854     057E                     u1563:
  1855     057E  083C               	movf	___flmul@b+2,w
  1856     057F  00F0               	movwf	__Umul8_16@multiplicand
  1857     0580  083E               	movf	___flmul@a,w
  1858     0581  120A  118A  206C  120A  118A  	fcall	__Umul8_16
  1859     0586  0871               	movf	?__Umul8_16+1,w
  1860     0587  1283               	bcf	3,5	;RP0=0, select bank0
  1861     0588  1303               	bcf	3,6	;RP1=0, select bank0
  1862     0589  00D3               	movwf	___flmul@temp+1
  1863     058A  0870               	movf	?__Umul8_16,w
  1864     058B  00D2               	movwf	___flmul@temp
  1865     058C                     l1318:
  1866     058C  0852               	movf	___flmul@temp,w
  1867     058D  00C2               	movwf	??___flmul
  1868     058E  01C3               	clrf	??___flmul+1
  1869     058F  01C4               	clrf	??___flmul+2
  1870     0590  01C5               	clrf	??___flmul+3
  1871     0591  0842               	movf	??___flmul,w
  1872     0592  07C8               	addwf	___flmul@grs,f
  1873     0593  0843               	movf	??___flmul+1,w
  1874     0594  1103               	clrz
  1875     0595  1803               	skipnc
  1876     0596  3E01               	addlw	1
  1877     0597  1903               	skipnz
  1878     0598  2D9A               	goto	u1571
  1879     0599  07C9               	addwf	___flmul@grs+1,f
  1880     059A                     u1571:
  1881     059A  0844               	movf	??___flmul+2,w
  1882     059B  1103               	clrz
  1883     059C  1803               	skipnc
  1884     059D  3E01               	addlw	1
  1885     059E  1903               	skipnz
  1886     059F  2DA1               	goto	u1572
  1887     05A0  07CA               	addwf	___flmul@grs+2,f
  1888     05A1                     u1572:
  1889     05A1  0845               	movf	??___flmul+3,w
  1890     05A2  1103               	clrz
  1891     05A3  1803               	skipnc
  1892     05A4  3E01               	addlw	1
  1893     05A5  1903               	skipnz
  1894     05A6  2DA8               	goto	u1573
  1895     05A7  07CB               	addwf	___flmul@grs+3,f
  1896     05A8                     u1573:
  1897     05A8                     l1320:
  1898     05A8  0853               	movf	___flmul@temp+1,w
  1899     05A9  00C2               	movwf	??___flmul
  1900     05AA  01C3               	clrf	??___flmul+1
  1901     05AB  01C4               	clrf	??___flmul+2
  1902     05AC  01C5               	clrf	??___flmul+3
  1903     05AD  0842               	movf	??___flmul,w
  1904     05AE  07CE               	addwf	___flmul@prod,f
  1905     05AF  0843               	movf	??___flmul+1,w
  1906     05B0  1103               	clrz
  1907     05B1  1803               	skipnc
  1908     05B2  3E01               	addlw	1
  1909     05B3  1903               	skipnz
  1910     05B4  2DB6               	goto	u1581
  1911     05B5  07CF               	addwf	___flmul@prod+1,f
  1912     05B6                     u1581:
  1913     05B6  0844               	movf	??___flmul+2,w
  1914     05B7  1103               	clrz
  1915     05B8  1803               	skipnc
  1916     05B9  3E01               	addlw	1
  1917     05BA  1903               	skipnz
  1918     05BB  2DBD               	goto	u1582
  1919     05BC  07D0               	addwf	___flmul@prod+2,f
  1920     05BD                     u1582:
  1921     05BD  0845               	movf	??___flmul+3,w
  1922     05BE  1103               	clrz
  1923     05BF  1803               	skipnc
  1924     05C0  3E01               	addlw	1
  1925     05C1  1903               	skipnz
  1926     05C2  2DC4               	goto	u1583
  1927     05C3  07D1               	addwf	___flmul@prod+3,f
  1928     05C4                     u1583:
  1929     05C4                     l1322:
  1930     05C4  3008               	movlw	8
  1931     05C5  00C2               	movwf	??___flmul
  1932     05C6                     u1595:
  1933     05C6  1003               	clrc
  1934     05C7  0DC8               	rlf	___flmul@grs,f
  1935     05C8  0DC9               	rlf	___flmul@grs+1,f
  1936     05C9  0DCA               	rlf	___flmul@grs+2,f
  1937     05CA  0DCB               	rlf	___flmul@grs+3,f
  1938     05CB  0BC2               	decfsz	??___flmul,f
  1939     05CC  2DC6               	goto	u1595
  1940     05CD                     l1324:
  1941     05CD  083B               	movf	___flmul@b+1,w
  1942     05CE  00F0               	movwf	__Umul8_16@multiplicand
  1943     05CF  083E               	movf	___flmul@a,w
  1944     05D0  120A  118A  206C  120A  118A  	fcall	__Umul8_16
  1945     05D5  0871               	movf	?__Umul8_16+1,w
  1946     05D6  1283               	bcf	3,5	;RP0=0, select bank0
  1947     05D7  1303               	bcf	3,6	;RP1=0, select bank0
  1948     05D8  00D3               	movwf	___flmul@temp+1
  1949     05D9  0870               	movf	?__Umul8_16,w
  1950     05DA  00D2               	movwf	___flmul@temp
  1951     05DB                     l1326:
  1952     05DB  0852               	movf	___flmul@temp,w
  1953     05DC  00C2               	movwf	??___flmul
  1954     05DD  0853               	movf	___flmul@temp+1,w
  1955     05DE  00C3               	movwf	??___flmul+1
  1956     05DF  01C4               	clrf	??___flmul+2
  1957     05E0  01C5               	clrf	??___flmul+3
  1958     05E1  0842               	movf	??___flmul,w
  1959     05E2  07C8               	addwf	___flmul@grs,f
  1960     05E3  0843               	movf	??___flmul+1,w
  1961     05E4  1103               	clrz
  1962     05E5  1803               	skipnc
  1963     05E6  3E01               	addlw	1
  1964     05E7  1903               	skipnz
  1965     05E8  2DEA               	goto	u1601
  1966     05E9  07C9               	addwf	___flmul@grs+1,f
  1967     05EA                     u1601:
  1968     05EA  0844               	movf	??___flmul+2,w
  1969     05EB  1103               	clrz
  1970     05EC  1803               	skipnc
  1971     05ED  3E01               	addlw	1
  1972     05EE  1903               	skipnz
  1973     05EF  2DF1               	goto	u1602
  1974     05F0  07CA               	addwf	___flmul@grs+2,f
  1975     05F1                     u1602:
  1976     05F1  0845               	movf	??___flmul+3,w
  1977     05F2  1103               	clrz
  1978     05F3  1803               	skipnc
  1979     05F4  3E01               	addlw	1
  1980     05F5  1903               	skipnz
  1981     05F6  2DF8               	goto	u1603
  1982     05F7  07CB               	addwf	___flmul@grs+3,f
  1983     05F8                     u1603:
  1984     05F8                     l1328:
  1985     05F8  083A               	movf	___flmul@b,w
  1986     05F9  00F0               	movwf	__Umul8_16@multiplicand
  1987     05FA  083F               	movf	___flmul@a+1,w
  1988     05FB  120A  118A  206C  120A  118A  	fcall	__Umul8_16
  1989     0600  0871               	movf	?__Umul8_16+1,w
  1990     0601  1283               	bcf	3,5	;RP0=0, select bank0
  1991     0602  1303               	bcf	3,6	;RP1=0, select bank0
  1992     0603  00D3               	movwf	___flmul@temp+1
  1993     0604  0870               	movf	?__Umul8_16,w
  1994     0605  00D2               	movwf	___flmul@temp
  1995     0606                     l1330:
  1996     0606  0852               	movf	___flmul@temp,w
  1997     0607  00C2               	movwf	??___flmul
  1998     0608  0853               	movf	___flmul@temp+1,w
  1999     0609  00C3               	movwf	??___flmul+1
  2000     060A  01C4               	clrf	??___flmul+2
  2001     060B  01C5               	clrf	??___flmul+3
  2002     060C  0842               	movf	??___flmul,w
  2003     060D  07C8               	addwf	___flmul@grs,f
  2004     060E  0843               	movf	??___flmul+1,w
  2005     060F  1103               	clrz
  2006     0610  1803               	skipnc
  2007     0611  3E01               	addlw	1
  2008     0612  1903               	skipnz
  2009     0613  2E15               	goto	u1611
  2010     0614  07C9               	addwf	___flmul@grs+1,f
  2011     0615                     u1611:
  2012     0615  0844               	movf	??___flmul+2,w
  2013     0616  1103               	clrz
  2014     0617  1803               	skipnc
  2015     0618  3E01               	addlw	1
  2016     0619  1903               	skipnz
  2017     061A  2E1C               	goto	u1612
  2018     061B  07CA               	addwf	___flmul@grs+2,f
  2019     061C                     u1612:
  2020     061C  0845               	movf	??___flmul+3,w
  2021     061D  1103               	clrz
  2022     061E  1803               	skipnc
  2023     061F  3E01               	addlw	1
  2024     0620  1903               	skipnz
  2025     0621  2E23               	goto	u1613
  2026     0622  07CB               	addwf	___flmul@grs+3,f
  2027     0623                     u1613:
  2028     0623                     l1332:
  2029     0623  3008               	movlw	8
  2030     0624  00C2               	movwf	??___flmul
  2031     0625                     u1625:
  2032     0625  1003               	clrc
  2033     0626  0DC8               	rlf	___flmul@grs,f
  2034     0627  0DC9               	rlf	___flmul@grs+1,f
  2035     0628  0DCA               	rlf	___flmul@grs+2,f
  2036     0629  0DCB               	rlf	___flmul@grs+3,f
  2037     062A  0BC2               	decfsz	??___flmul,f
  2038     062B  2E25               	goto	u1625
  2039     062C  083A               	movf	___flmul@b,w
  2040     062D  00F0               	movwf	__Umul8_16@multiplicand
  2041     062E  083E               	movf	___flmul@a,w
  2042     062F  120A  118A  206C  120A  118A  	fcall	__Umul8_16
  2043     0634  0871               	movf	?__Umul8_16+1,w
  2044     0635  1283               	bcf	3,5	;RP0=0, select bank0
  2045     0636  1303               	bcf	3,6	;RP1=0, select bank0
  2046     0637  00D3               	movwf	___flmul@temp+1
  2047     0638  0870               	movf	?__Umul8_16,w
  2048     0639  00D2               	movwf	___flmul@temp
  2049     063A                     l1334:
  2050     063A  0852               	movf	___flmul@temp,w
  2051     063B  00C2               	movwf	??___flmul
  2052     063C  0853               	movf	___flmul@temp+1,w
  2053     063D  00C3               	movwf	??___flmul+1
  2054     063E  01C4               	clrf	??___flmul+2
  2055     063F  01C5               	clrf	??___flmul+3
  2056     0640  0842               	movf	??___flmul,w
  2057     0641  07C8               	addwf	___flmul@grs,f
  2058     0642  0843               	movf	??___flmul+1,w
  2059     0643  1103               	clrz
  2060     0644  1803               	skipnc
  2061     0645  3E01               	addlw	1
  2062     0646  1903               	skipnz
  2063     0647  2E49               	goto	u1631
  2064     0648  07C9               	addwf	___flmul@grs+1,f
  2065     0649                     u1631:
  2066     0649  0844               	movf	??___flmul+2,w
  2067     064A  1103               	clrz
  2068     064B  1803               	skipnc
  2069     064C  3E01               	addlw	1
  2070     064D  1903               	skipnz
  2071     064E  2E50               	goto	u1632
  2072     064F  07CA               	addwf	___flmul@grs+2,f
  2073     0650                     u1632:
  2074     0650  0845               	movf	??___flmul+3,w
  2075     0651  1103               	clrz
  2076     0652  1803               	skipnc
  2077     0653  3E01               	addlw	1
  2078     0654  1903               	skipnz
  2079     0655  2E57               	goto	u1633
  2080     0656  07CB               	addwf	___flmul@grs+3,f
  2081     0657                     u1633:
  2082     0657                     l1336:
  2083     0657  083B               	movf	___flmul@b+1,w
  2084     0658  00F0               	movwf	__Umul8_16@multiplicand
  2085     0659  0840               	movf	___flmul@a+2,w
  2086     065A  120A  118A  206C  120A  118A  	fcall	__Umul8_16
  2087     065F  0871               	movf	?__Umul8_16+1,w
  2088     0660  1283               	bcf	3,5	;RP0=0, select bank0
  2089     0661  1303               	bcf	3,6	;RP1=0, select bank0
  2090     0662  00D3               	movwf	___flmul@temp+1
  2091     0663  0870               	movf	?__Umul8_16,w
  2092     0664  00D2               	movwf	___flmul@temp
  2093     0665  0852               	movf	___flmul@temp,w
  2094     0666  00C2               	movwf	??___flmul
  2095     0667  0853               	movf	___flmul@temp+1,w
  2096     0668  00C3               	movwf	??___flmul+1
  2097     0669  01C4               	clrf	??___flmul+2
  2098     066A  01C5               	clrf	??___flmul+3
  2099     066B  0842               	movf	??___flmul,w
  2100     066C  07CE               	addwf	___flmul@prod,f
  2101     066D  0843               	movf	??___flmul+1,w
  2102     066E  1103               	clrz
  2103     066F  1803               	skipnc
  2104     0670  3E01               	addlw	1
  2105     0671  1903               	skipnz
  2106     0672  2E74               	goto	u1641
  2107     0673  07CF               	addwf	___flmul@prod+1,f
  2108     0674                     u1641:
  2109     0674  0844               	movf	??___flmul+2,w
  2110     0675  1103               	clrz
  2111     0676  1803               	skipnc
  2112     0677  3E01               	addlw	1
  2113     0678  1903               	skipnz
  2114     0679  2E7B               	goto	u1642
  2115     067A  07D0               	addwf	___flmul@prod+2,f
  2116     067B                     u1642:
  2117     067B  0845               	movf	??___flmul+3,w
  2118     067C  1103               	clrz
  2119     067D  1803               	skipnc
  2120     067E  3E01               	addlw	1
  2121     067F  1903               	skipnz
  2122     0680  2E82               	goto	u1643
  2123     0681  07D1               	addwf	___flmul@prod+3,f
  2124     0682                     u1643:
  2125     0682                     l1338:
  2126     0682  083C               	movf	___flmul@b+2,w
  2127     0683  00F0               	movwf	__Umul8_16@multiplicand
  2128     0684  083F               	movf	___flmul@a+1,w
  2129     0685  120A  118A  206C  120A  118A  	fcall	__Umul8_16
  2130     068A  0871               	movf	?__Umul8_16+1,w
  2131     068B  1283               	bcf	3,5	;RP0=0, select bank0
  2132     068C  1303               	bcf	3,6	;RP1=0, select bank0
  2133     068D  00D3               	movwf	___flmul@temp+1
  2134     068E  0870               	movf	?__Umul8_16,w
  2135     068F  00D2               	movwf	___flmul@temp
  2136     0690                     l1340:
  2137     0690  0852               	movf	___flmul@temp,w
  2138     0691  00C2               	movwf	??___flmul
  2139     0692  0853               	movf	___flmul@temp+1,w
  2140     0693  00C3               	movwf	??___flmul+1
  2141     0694  01C4               	clrf	??___flmul+2
  2142     0695  01C5               	clrf	??___flmul+3
  2143     0696  0842               	movf	??___flmul,w
  2144     0697  07CE               	addwf	___flmul@prod,f
  2145     0698  0843               	movf	??___flmul+1,w
  2146     0699  1103               	clrz
  2147     069A  1803               	skipnc
  2148     069B  3E01               	addlw	1
  2149     069C  1903               	skipnz
  2150     069D  2E9F               	goto	u1651
  2151     069E  07CF               	addwf	___flmul@prod+1,f
  2152     069F                     u1651:
  2153     069F  0844               	movf	??___flmul+2,w
  2154     06A0  1103               	clrz
  2155     06A1  1803               	skipnc
  2156     06A2  3E01               	addlw	1
  2157     06A3  1903               	skipnz
  2158     06A4  2EA6               	goto	u1652
  2159     06A5  07D0               	addwf	___flmul@prod+2,f
  2160     06A6                     u1652:
  2161     06A6  0845               	movf	??___flmul+3,w
  2162     06A7  1103               	clrz
  2163     06A8  1803               	skipnc
  2164     06A9  3E01               	addlw	1
  2165     06AA  1903               	skipnz
  2166     06AB  2EAD               	goto	u1653
  2167     06AC  07D1               	addwf	___flmul@prod+3,f
  2168     06AD                     u1653:
  2169     06AD  083C               	movf	___flmul@b+2,w
  2170     06AE  00F0               	movwf	__Umul8_16@multiplicand
  2171     06AF  0840               	movf	___flmul@a+2,w
  2172     06B0  120A  118A  206C  120A  118A  	fcall	__Umul8_16
  2173     06B5  0871               	movf	?__Umul8_16+1,w
  2174     06B6  1283               	bcf	3,5	;RP0=0, select bank0
  2175     06B7  1303               	bcf	3,6	;RP1=0, select bank0
  2176     06B8  00D3               	movwf	___flmul@temp+1
  2177     06B9  0870               	movf	?__Umul8_16,w
  2178     06BA  00D2               	movwf	___flmul@temp
  2179     06BB                     l1342:
  2180     06BB  0852               	movf	___flmul@temp,w
  2181     06BC  00C2               	movwf	??___flmul
  2182     06BD  0853               	movf	___flmul@temp+1,w
  2183     06BE  00C3               	movwf	??___flmul+1
  2184     06BF  01C4               	clrf	??___flmul+2
  2185     06C0  01C5               	clrf	??___flmul+3
  2186     06C1  3008               	movlw	8
  2187     06C2                     u1665:
  2188     06C2  1003               	clrc
  2189     06C3  0DC2               	rlf	??___flmul,f
  2190     06C4  0DC3               	rlf	??___flmul+1,f
  2191     06C5  0DC4               	rlf	??___flmul+2,f
  2192     06C6  0DC5               	rlf	??___flmul+3,f
  2193     06C7                     u1660:
  2194     06C7  3EFF               	addlw	-1
  2195     06C8  1D03               	skipz
  2196     06C9  2EC2               	goto	u1665
  2197     06CA  0842               	movf	??___flmul,w
  2198     06CB  07CE               	addwf	___flmul@prod,f
  2199     06CC  0843               	movf	??___flmul+1,w
  2200     06CD  1103               	clrz
  2201     06CE  1803               	skipnc
  2202     06CF  3E01               	addlw	1
  2203     06D0  1903               	skipnz
  2204     06D1  2ED3               	goto	u1671
  2205     06D2  07CF               	addwf	___flmul@prod+1,f
  2206     06D3                     u1671:
  2207     06D3  0844               	movf	??___flmul+2,w
  2208     06D4  1103               	clrz
  2209     06D5  1803               	skipnc
  2210     06D6  3E01               	addlw	1
  2211     06D7  1903               	skipnz
  2212     06D8  2EDA               	goto	u1672
  2213     06D9  07D0               	addwf	___flmul@prod+2,f
  2214     06DA                     u1672:
  2215     06DA  0845               	movf	??___flmul+3,w
  2216     06DB  1103               	clrz
  2217     06DC  1803               	skipnc
  2218     06DD  3E01               	addlw	1
  2219     06DE  1903               	skipnz
  2220     06DF  2EE1               	goto	u1673
  2221     06E0  07D1               	addwf	___flmul@prod+3,f
  2222     06E1                     u1673:
  2223     06E1                     l1344:
  2224     06E1  0848               	movf	___flmul@grs,w
  2225     06E2  00C2               	movwf	??___flmul
  2226     06E3  0849               	movf	___flmul@grs+1,w
  2227     06E4  00C3               	movwf	??___flmul+1
  2228     06E5  084A               	movf	___flmul@grs+2,w
  2229     06E6  00C4               	movwf	??___flmul+2
  2230     06E7  084B               	movf	___flmul@grs+3,w
  2231     06E8  00C5               	movwf	??___flmul+3
  2232     06E9  3018               	movlw	24
  2233     06EA                     u1685:
  2234     06EA  1003               	clrc
  2235     06EB  0CC5               	rrf	??___flmul+3,f
  2236     06EC  0CC4               	rrf	??___flmul+2,f
  2237     06ED  0CC3               	rrf	??___flmul+1,f
  2238     06EE  0CC2               	rrf	??___flmul,f
  2239     06EF                     u1680:
  2240     06EF  3EFF               	addlw	-1
  2241     06F0  1D03               	skipz
  2242     06F1  2EEA               	goto	u1685
  2243     06F2  0842               	movf	??___flmul,w
  2244     06F3  07CE               	addwf	___flmul@prod,f
  2245     06F4  0843               	movf	??___flmul+1,w
  2246     06F5  1103               	clrz
  2247     06F6  1803               	skipnc
  2248     06F7  3E01               	addlw	1
  2249     06F8  1903               	skipnz
  2250     06F9  2EFB               	goto	u1691
  2251     06FA  07CF               	addwf	___flmul@prod+1,f
  2252     06FB                     u1691:
  2253     06FB  0844               	movf	??___flmul+2,w
  2254     06FC  1103               	clrz
  2255     06FD  1803               	skipnc
  2256     06FE  3E01               	addlw	1
  2257     06FF  1903               	skipnz
  2258     0700  2F02               	goto	u1692
  2259     0701  07D0               	addwf	___flmul@prod+2,f
  2260     0702                     u1692:
  2261     0702  0845               	movf	??___flmul+3,w
  2262     0703  1103               	clrz
  2263     0704  1803               	skipnc
  2264     0705  3E01               	addlw	1
  2265     0706  1903               	skipnz
  2266     0707  2F09               	goto	u1693
  2267     0708  07D1               	addwf	___flmul@prod+3,f
  2268     0709                     u1693:
  2269     0709                     l1346:
  2270     0709  3008               	movlw	8
  2271     070A  00C2               	movwf	??___flmul
  2272     070B                     u1705:
  2273     070B  1003               	clrc
  2274     070C  0DC8               	rlf	___flmul@grs,f
  2275     070D  0DC9               	rlf	___flmul@grs+1,f
  2276     070E  0DCA               	rlf	___flmul@grs+2,f
  2277     070F  0DCB               	rlf	___flmul@grs+3,f
  2278     0710  0BC2               	decfsz	??___flmul,f
  2279     0711  2F0B               	goto	u1705
  2280     0712                     l1348:
  2281     0712  084D               	movf	___flmul@bexp,w
  2282     0713  074C               	addwf	___flmul@aexp,w
  2283     0714  00C2               	movwf	??___flmul
  2284     0715  01C3               	clrf	??___flmul+1
  2285     0716  0DC3               	rlf	??___flmul+1,f
  2286     0717  0842               	movf	??___flmul,w
  2287     0718  3E82               	addlw	130
  2288     0719  00D2               	movwf	___flmul@temp
  2289     071A  0843               	movf	??___flmul+1,w
  2290     071B  1803               	skipnc
  2291     071C  3E01               	addlw	1
  2292     071D  3EFF               	addlw	255
  2293     071E  00D3               	movwf	___flmul@temp+1
  2294     071F  2F3D               	goto	l1360
  2295     0720                     l1350:
  2296     0720  3001               	movlw	1
  2297     0721  00C2               	movwf	??___flmul
  2298     0722                     u1715:
  2299     0722  1003               	clrc
  2300     0723  0DCE               	rlf	___flmul@prod,f
  2301     0724  0DCF               	rlf	___flmul@prod+1,f
  2302     0725  0DD0               	rlf	___flmul@prod+2,f
  2303     0726  0DD1               	rlf	___flmul@prod+3,f
  2304     0727  0BC2               	decfsz	??___flmul,f
  2305     0728  2F22               	goto	u1715
  2306     0729                     l1352:
  2307     0729  1FCB               	btfss	___flmul@grs+3,7
  2308     072A  2F2C               	goto	u1721
  2309     072B  2F2D               	goto	u1720
  2310     072C                     u1721:
  2311     072C  2F2E               	goto	l1356
  2312     072D                     u1720:
  2313     072D                     l1354:
  2314     072D  144E               	bsf	___flmul@prod,0
  2315     072E                     l1356:
  2316     072E  3001               	movlw	1
  2317     072F  00C2               	movwf	??___flmul
  2318     0730                     u1735:
  2319     0730  1003               	clrc
  2320     0731  0DC8               	rlf	___flmul@grs,f
  2321     0732  0DC9               	rlf	___flmul@grs+1,f
  2322     0733  0DCA               	rlf	___flmul@grs+2,f
  2323     0734  0DCB               	rlf	___flmul@grs+3,f
  2324     0735  0BC2               	decfsz	??___flmul,f
  2325     0736  2F30               	goto	u1735
  2326     0737                     l1358:
  2327     0737  30FF               	movlw	255
  2328     0738  07D2               	addwf	___flmul@temp,f
  2329     0739  1803               	skipnc
  2330     073A  0AD3               	incf	___flmul@temp+1,f
  2331     073B  30FF               	movlw	255
  2332     073C  07D3               	addwf	___flmul@temp+1,f
  2333     073D                     l1360:
  2334     073D  1FD0               	btfss	___flmul@prod+2,7
  2335     073E  2F40               	goto	u1741
  2336     073F  2F41               	goto	u1740
  2337     0740                     u1741:
  2338     0740  2F20               	goto	l1350
  2339     0741                     u1740:
  2340     0741                     l1362:
  2341     0741  01CC               	clrf	___flmul@aexp
  2342     0742                     l1364:
  2343     0742  1FCB               	btfss	___flmul@grs+3,7
  2344     0743  2F45               	goto	u1751
  2345     0744  2F46               	goto	u1750
  2346     0745                     u1751:
  2347     0745  2F62               	goto	l1372
  2348     0746                     u1750:
  2349     0746                     l1366:
  2350     0746  30FF               	movlw	255
  2351     0747  0548               	andwf	___flmul@grs,w
  2352     0748  00C2               	movwf	??___flmul
  2353     0749  30FF               	movlw	255
  2354     074A  0549               	andwf	___flmul@grs+1,w
  2355     074B  00C3               	movwf	??___flmul+1
  2356     074C  30FF               	movlw	255
  2357     074D  054A               	andwf	___flmul@grs+2,w
  2358     074E  00C4               	movwf	??___flmul+2
  2359     074F  307F               	movlw	127
  2360     0750  054B               	andwf	___flmul@grs+3,w
  2361     0751  00C5               	movwf	??___flmul+3
  2362     0752  0845               	movf	??___flmul+3,w
  2363     0753  0444               	iorwf	??___flmul+2,w
  2364     0754  0443               	iorwf	??___flmul+1,w
  2365     0755  0442               	iorwf	??___flmul,w
  2366     0756  1903               	skipnz
  2367     0757  2F59               	goto	u1761
  2368     0758  2F5A               	goto	u1760
  2369     0759                     u1761:
  2370     0759  2F5D               	goto	l565
  2371     075A                     u1760:
  2372     075A                     l1368:
  2373     075A  3001               	movlw	1
  2374     075B  00CC               	movwf	___flmul@aexp
  2375     075C  2F62               	goto	l1372
  2376     075D                     l565:
  2377     075D  1C4E               	btfss	___flmul@prod,0
  2378     075E  2F60               	goto	u1771
  2379     075F  2F61               	goto	u1770
  2380     0760                     u1771:
  2381     0760  2F62               	goto	l1372
  2382     0761                     u1770:
  2383     0761  2F5A               	goto	l1368
  2384     0762                     l1372:
  2385     0762  084C               	movf	___flmul@aexp,w
  2386     0763  1903               	btfsc	3,2
  2387     0764  2F66               	goto	u1781
  2388     0765  2F67               	goto	u1780
  2389     0766                     u1781:
  2390     0766  2F98               	goto	l1382
  2391     0767                     u1780:
  2392     0767                     l1374:
  2393     0767  3001               	movlw	1
  2394     0768  07CE               	addwf	___flmul@prod,f
  2395     0769  3000               	movlw	0
  2396     076A  1803               	skipnc
  2397     076B  3001               	movlw	1
  2398     076C  07CF               	addwf	___flmul@prod+1,f
  2399     076D  3000               	movlw	0
  2400     076E  1803               	skipnc
  2401     076F  3001               	movlw	1
  2402     0770  07D0               	addwf	___flmul@prod+2,f
  2403     0771  3000               	movlw	0
  2404     0772  1803               	skipnc
  2405     0773  3001               	movlw	1
  2406     0774  07D1               	addwf	___flmul@prod+3,f
  2407     0775                     l1376:
  2408     0775  1C51               	btfss	___flmul@prod+3,0
  2409     0776  2F78               	goto	u1791
  2410     0777  2F79               	goto	u1790
  2411     0778                     u1791:
  2412     0778  2F98               	goto	l1382
  2413     0779                     u1790:
  2414     0779                     l1378:
  2415     0779  084E               	movf	___flmul@prod,w
  2416     077A  00C2               	movwf	??___flmul
  2417     077B  084F               	movf	___flmul@prod+1,w
  2418     077C  00C3               	movwf	??___flmul+1
  2419     077D  0850               	movf	___flmul@prod+2,w
  2420     077E  00C4               	movwf	??___flmul+2
  2421     077F  0851               	movf	___flmul@prod+3,w
  2422     0780  00C5               	movwf	??___flmul+3
  2423     0781  3001               	movlw	1
  2424     0782  00C6               	movwf	??___flmul+4
  2425     0783                     u1805:
  2426     0783  0D45               	rlf	??___flmul+3,w
  2427     0784  0CC5               	rrf	??___flmul+3,f
  2428     0785  0CC4               	rrf	??___flmul+2,f
  2429     0786  0CC3               	rrf	??___flmul+1,f
  2430     0787  0CC2               	rrf	??___flmul,f
  2431     0788                     u1800:
  2432     0788  0BC6               	decfsz	??___flmul+4,f
  2433     0789  2F83               	goto	u1805
  2434     078A  0845               	movf	??___flmul+3,w
  2435     078B  00D1               	movwf	___flmul@prod+3
  2436     078C  0844               	movf	??___flmul+2,w
  2437     078D  00D0               	movwf	___flmul@prod+2
  2438     078E  0843               	movf	??___flmul+1,w
  2439     078F  00CF               	movwf	___flmul@prod+1
  2440     0790  0842               	movf	??___flmul,w
  2441     0791  00CE               	movwf	___flmul@prod
  2442     0792                     l1380:
  2443     0792  3001               	movlw	1
  2444     0793  07D2               	addwf	___flmul@temp,f
  2445     0794  1803               	skipnc
  2446     0795  0AD3               	incf	___flmul@temp+1,f
  2447     0796  3000               	movlw	0
  2448     0797  07D3               	addwf	___flmul@temp+1,f
  2449     0798                     l1382:
  2450     0798  0853               	movf	___flmul@temp+1,w
  2451     0799  3A80               	xorlw	128
  2452     079A  00FF               	movwf	btemp1
  2453     079B  3080               	movlw	128
  2454     079C  027F               	subwf	btemp1,w
  2455     079D  1D03               	skipz
  2456     079E  2FA1               	goto	u1815
  2457     079F  30FF               	movlw	255
  2458     07A0  0252               	subwf	___flmul@temp,w
  2459     07A1                     u1815:
  2460     07A1  1C03               	skipc
  2461     07A2  2FA4               	goto	u1811
  2462     07A3  2FA5               	goto	u1810
  2463     07A4                     u1811:
  2464     07A4  2FB0               	goto	l1386
  2465     07A5                     u1810:
  2466     07A5                     l1384:
  2467     07A5  307F               	movlw	127
  2468     07A6  1283               	bcf	3,5	;RP0=0, select bank0
  2469     07A7  1303               	bcf	3,6	;RP1=0, select bank0
  2470     07A8  00D1               	movwf	___flmul@prod+3
  2471     07A9  3080               	movlw	128
  2472     07AA  00D0               	movwf	___flmul@prod+2
  2473     07AB  3000               	movlw	0
  2474     07AC  00CF               	movwf	___flmul@prod+1
  2475     07AD  3000               	movlw	0
  2476     07AE  00CE               	movwf	___flmul@prod
  2477     07AF  2FE1               	goto	l571
  2478     07B0                     l1386:
  2479     07B0  1283               	bcf	3,5	;RP0=0, select bank0
  2480     07B1  1303               	bcf	3,6	;RP1=0, select bank0
  2481     07B2  0853               	movf	___flmul@temp+1,w
  2482     07B3  3A80               	xorlw	128
  2483     07B4  00FF               	movwf	btemp1
  2484     07B5  3080               	movlw	128
  2485     07B6  027F               	subwf	btemp1,w
  2486     07B7  1D03               	skipz
  2487     07B8  2FBB               	goto	u1825
  2488     07B9  3001               	movlw	1
  2489     07BA  0252               	subwf	___flmul@temp,w
  2490     07BB                     u1825:
  2491     07BB  1803               	skipnc
  2492     07BC  2FBE               	goto	u1821
  2493     07BD  2FBF               	goto	u1820
  2494     07BE                     u1821:
  2495     07BE  2FCB               	goto	l1392
  2496     07BF                     u1820:
  2497     07BF                     l1388:
  2498     07BF  3000               	movlw	0
  2499     07C0  1283               	bcf	3,5	;RP0=0, select bank0
  2500     07C1  1303               	bcf	3,6	;RP1=0, select bank0
  2501     07C2  00D1               	movwf	___flmul@prod+3
  2502     07C3  3000               	movlw	0
  2503     07C4  00D0               	movwf	___flmul@prod+2
  2504     07C5  3000               	movlw	0
  2505     07C6  00CF               	movwf	___flmul@prod+1
  2506     07C7  3000               	movlw	0
  2507     07C8  00CE               	movwf	___flmul@prod
  2508     07C9                     l1390:
  2509     07C9  01C7               	clrf	___flmul@sign
  2510     07CA  2FE1               	goto	l571
  2511     07CB                     l1392:
  2512     07CB  1283               	bcf	3,5	;RP0=0, select bank0
  2513     07CC  1303               	bcf	3,6	;RP1=0, select bank0
  2514     07CD  0852               	movf	___flmul@temp,w
  2515     07CE  00CD               	movwf	___flmul@bexp
  2516     07CF  30FF               	movlw	255
  2517     07D0  05CE               	andwf	___flmul@prod,f
  2518     07D1  30FF               	movlw	255
  2519     07D2  05CF               	andwf	___flmul@prod+1,f
  2520     07D3  307F               	movlw	127
  2521     07D4  05D0               	andwf	___flmul@prod+2,f
  2522     07D5  3000               	movlw	0
  2523     07D6  05D1               	andwf	___flmul@prod+3,f
  2524     07D7                     l1394:
  2525     07D7  1C4D               	btfss	___flmul@bexp,0
  2526     07D8  2FDA               	goto	u1831
  2527     07D9  2FDB               	goto	u1830
  2528     07DA                     u1831:
  2529     07DA  2FDC               	goto	l1398
  2530     07DB                     u1830:
  2531     07DB                     l1396:
  2532     07DB  17D0               	bsf	___flmul@prod+2,7
  2533     07DC                     l1398:
  2534     07DC  084D               	movf	___flmul@bexp,w
  2535     07DD  00C2               	movwf	??___flmul
  2536     07DE  1003               	clrc
  2537     07DF  0C42               	rrf	??___flmul,w
  2538     07E0  00D1               	movwf	___flmul@prod+3
  2539     07E1                     l571:
  2540     07E1  0847               	movf	___flmul@sign,w
  2541     07E2  04D1               	iorwf	___flmul@prod+3,f
  2542     07E3                     l1400:
  2543     07E3  0851               	movf	___flmul@prod+3,w
  2544     07E4  00BD               	movwf	?___flmul+3
  2545     07E5  0850               	movf	___flmul@prod+2,w
  2546     07E6  00BC               	movwf	?___flmul+2
  2547     07E7  084F               	movf	___flmul@prod+1,w
  2548     07E8  00BB               	movwf	?___flmul+1
  2549     07E9  084E               	movf	___flmul@prod,w
  2550     07EA  00BA               	movwf	?___flmul
  2551     07EB                     l559:
  2552     07EB  0008               	return
  2553     07EC                     __end_of___flmul:
  2554                           
  2555                           	psect	text7
  2556     006C                     __ptext7:	
  2557 ;; *************** function __Umul8_16 *****************
  2558 ;; Defined at:
  2559 ;;		line 4 in file "/opt/microchip/xc8/v3.10/pic/sources/c99/common/Umul8_16.c"
  2560 ;; Parameters:    Size  Location     Type
  2561 ;;  multiplier      1    wreg     unsigned char 
  2562 ;;  multiplicand    1    0[COMMON] unsigned char 
  2563 ;; Auto vars:     Size  Location     Type
  2564 ;;  multiplier      1    8[COMMON] unsigned char 
  2565 ;;  word_mpld       2    6[COMMON] unsigned short 
  2566 ;;  product         2    4[COMMON] unsigned short 
  2567 ;; Return value:  Size  Location     Type
  2568 ;;                  2    0[COMMON] unsigned int 
  2569 ;; Registers used:
  2570 ;;		wreg, status,2, status,0
  2571 ;; Tracked objects:
  2572 ;;		On entry : 0/0
  2573 ;;		On exit  : 0/0
  2574 ;;		Unchanged: 0/0
  2575 ;; Data sizes:     COMMON   BANK0   BANK1   BANK3   BANK2
  2576 ;;      Params:         2       0       0       0       0
  2577 ;;      Locals:         5       0       0       0       0
  2578 ;;      Temps:          2       0       0       0       0
  2579 ;;      Totals:         9       0       0       0       0
  2580 ;;Total ram usage:        9 bytes
  2581 ;; Hardware stack levels used: 1
  2582 ;; This function calls:
  2583 ;;		Nothing
  2584 ;; This function is called by:
  2585 ;;		___flmul
  2586 ;; This function uses a non-reentrant model
  2587 ;;
  2588                           
  2589     006C                     __Umul8_16:	
  2590                           ;psect for function __Umul8_16
  2591                           
  2592                           
  2593                           ;incstack = 0
  2594                           ; Regs used in __Umul8_16: [wreg+status,2+status,0]
  2595                           ;__Umul8_16@multiplier stored from wreg
  2596     006C  00F8               	movwf	__Umul8_16@multiplier
  2597     006D                     l1068:
  2598     006D  01F4               	clrf	__Umul8_16@product
  2599     006E  01F5               	clrf	__Umul8_16@product+1
  2600     006F                     l1070:
  2601     006F  0870               	movf	__Umul8_16@multiplicand,w
  2602     0070  00F2               	movwf	??__Umul8_16
  2603     0071  01F3               	clrf	??__Umul8_16+1
  2604     0072  0872               	movf	??__Umul8_16,w
  2605     0073  00F6               	movwf	__Umul8_16@word_mpld
  2606     0074  0873               	movf	??__Umul8_16+1,w
  2607     0075  00F7               	movwf	__Umul8_16@word_mpld+1
  2608     0076                     l1072:
  2609     0076  1C78               	btfss	__Umul8_16@multiplier,0
  2610     0077  2879               	goto	u1051
  2611     0078  287A               	goto	u1050
  2612     0079                     u1051:
  2613     0079  2880               	goto	l578
  2614     007A                     u1050:
  2615     007A                     l1074:
  2616     007A  0876               	movf	__Umul8_16@word_mpld,w
  2617     007B  07F4               	addwf	__Umul8_16@product,f
  2618     007C  1803               	skipnc
  2619     007D  0AF5               	incf	__Umul8_16@product+1,f
  2620     007E  0877               	movf	__Umul8_16@word_mpld+1,w
  2621     007F  07F5               	addwf	__Umul8_16@product+1,f
  2622     0080                     l578:
  2623     0080  3001               	movlw	1
  2624     0081                     u1065:
  2625     0081  1003               	clrc
  2626     0082  0DF6               	rlf	__Umul8_16@word_mpld,f
  2627     0083  0DF7               	rlf	__Umul8_16@word_mpld+1,f
  2628     0084  3EFF               	addlw	-1
  2629     0085  1D03               	skipz
  2630     0086  2881               	goto	u1065
  2631     0087  1003               	clrc
  2632     0088  0CF8               	rrf	__Umul8_16@multiplier,f
  2633     0089                     l1076:
  2634     0089  0878               	movf	__Umul8_16@multiplier,w
  2635     008A  1D03               	btfss	3,2
  2636     008B  288D               	goto	u1071
  2637     008C  288E               	goto	u1070
  2638     008D                     u1071:
  2639     008D  2876               	goto	l1072
  2640     008E                     u1070:
  2641     008E                     l1078:
  2642     008E  0875               	movf	__Umul8_16@product+1,w
  2643     008F  00F1               	movwf	?__Umul8_16+1
  2644     0090  0874               	movf	__Umul8_16@product,w
  2645     0091  00F0               	movwf	?__Umul8_16
  2646     0092                     l580:
  2647     0092  0008               	return
  2648     0093                     __end_of__Umul8_16:
  2649                           
  2650                           	psect	text8
  2651     02E0                     __ptext8:	
  2652 ;; *************** function ___fldiv *****************
  2653 ;; Defined at:
  2654 ;;		line 8 in file "/opt/microchip/xc8/v3.10/pic/sources/c99/common/sprcdiv.c"
  2655 ;; Parameters:    Size  Location     Type
  2656 ;;  a               4    0[BANK0 ] unsigned int 
  2657 ;;  b               4    4[BANK0 ] unsigned int 
  2658 ;; Auto vars:     Size  Location     Type
  2659 ;;  grs             4   20[BANK0 ] unsigned long 
  2660 ;;  rem             4   13[BANK0 ] unsigned long 
  2661 ;;  new_exp         2   18[BANK0 ] short 
  2662 ;;  aexp            1   25[BANK0 ] unsigned char 
  2663 ;;  bexp            1   24[BANK0 ] unsigned char 
  2664 ;;  sign            1   17[BANK0 ] unsigned char 
  2665 ;; Return value:  Size  Location     Type
  2666 ;;                  4    0[BANK0 ] unsigned char 
  2667 ;; Registers used:
  2668 ;;		wreg, status,2, status,0, btemp1
  2669 ;; Tracked objects:
  2670 ;;		On entry : 0/0
  2671 ;;		On exit  : 0/0
  2672 ;;		Unchanged: 0/0
  2673 ;; Data sizes:     COMMON   BANK0   BANK1   BANK3   BANK2
  2674 ;;      Params:         0       8       0       0       0
  2675 ;;      Locals:         0      13       0       0       0
  2676 ;;      Temps:          0       5       0       0       0
  2677 ;;      Totals:         0      26       0       0       0
  2678 ;;Total ram usage:       26 bytes
  2679 ;; Hardware stack levels used: 1
  2680 ;; This function calls:
  2681 ;;		Nothing
  2682 ;; This function is called by:
  2683 ;;		_set_pwm_duty
  2684 ;; This function uses a non-reentrant model
  2685 ;;
  2686                           
  2687     02E0                     ___fldiv:	
  2688                           ;psect for function ___fldiv
  2689                           
  2690     02E0                     l1118:	
  2691                           ;incstack = 0
  2692                           ; Regs used in ___fldiv: [wreg+status,2+status,0+btemp1]
  2693                           
  2694     02E0  1283               	bcf	3,5	;RP0=0, select bank0
  2695     02E1  1303               	bcf	3,6	;RP1=0, select bank0
  2696     02E2  0827               	movf	___fldiv@b+3,w
  2697     02E3  00B1               	movwf	___fldiv@sign
  2698     02E4                     l1120:
  2699     02E4  3080               	movlw	128
  2700     02E5  05B1               	andwf	___fldiv@sign,f
  2701     02E6                     l1122:
  2702     02E6  0827               	movf	___fldiv@b+3,w
  2703     02E7  00A8               	movwf	??___fldiv
  2704     02E8  0728               	addwf	??___fldiv,w
  2705     02E9  00B8               	movwf	___fldiv@bexp
  2706     02EA                     l1124:
  2707     02EA  1FA6               	btfss	___fldiv@b+2,7
  2708     02EB  2AED               	goto	u1181
  2709     02EC  2AEE               	goto	u1180
  2710     02ED                     u1181:
  2711     02ED  2AEF               	goto	l1128
  2712     02EE                     u1180:
  2713     02EE                     l1126:
  2714     02EE  1438               	bsf	___fldiv@bexp,0
  2715     02EF                     l1128:
  2716     02EF  0838               	movf	___fldiv@bexp,w
  2717     02F0  1903               	btfsc	3,2
  2718     02F1  2AF3               	goto	u1191
  2719     02F2  2AF4               	goto	u1190
  2720     02F3                     u1191:
  2721     02F3  2B04               	goto	l1138
  2722     02F4                     u1190:
  2723     02F4                     l1130:
  2724     02F4  0A38               	incf	___fldiv@bexp,w
  2725     02F5  1D03               	btfss	3,2
  2726     02F6  2AF8               	goto	u1201
  2727     02F7  2AF9               	goto	u1200
  2728     02F8                     u1201:
  2729     02F8  2B01               	goto	l1134
  2730     02F9                     u1200:
  2731     02F9                     l1132:
  2732     02F9  3000               	movlw	0
  2733     02FA  00A7               	movwf	___fldiv@b+3
  2734     02FB  3000               	movlw	0
  2735     02FC  00A6               	movwf	___fldiv@b+2
  2736     02FD  3000               	movlw	0
  2737     02FE  00A5               	movwf	___fldiv@b+1
  2738     02FF  3000               	movlw	0
  2739     0300  00A4               	movwf	___fldiv@b
  2740     0301                     l1134:
  2741     0301  17A6               	bsf	___fldiv@b+2,7
  2742     0302                     l1136:
  2743     0302  01A7               	clrf	___fldiv@b+3
  2744     0303  2B0C               	goto	l1140
  2745     0304                     l1138:
  2746     0304  3000               	movlw	0
  2747     0305  00A7               	movwf	___fldiv@b+3
  2748     0306  3000               	movlw	0
  2749     0307  00A6               	movwf	___fldiv@b+2
  2750     0308  3000               	movlw	0
  2751     0309  00A5               	movwf	___fldiv@b+1
  2752     030A  3000               	movlw	0
  2753     030B  00A4               	movwf	___fldiv@b
  2754     030C                     l1140:
  2755     030C  0823               	movf	___fldiv@a+3,w
  2756     030D  3980               	andlw	128
  2757     030E  06B1               	xorwf	___fldiv@sign,f
  2758     030F                     l1142:
  2759     030F  0823               	movf	___fldiv@a+3,w
  2760     0310  00A8               	movwf	??___fldiv
  2761     0311  0728               	addwf	??___fldiv,w
  2762     0312  00B9               	movwf	___fldiv@aexp
  2763     0313                     l1144:
  2764     0313  1FA2               	btfss	___fldiv@a+2,7
  2765     0314  2B16               	goto	u1211
  2766     0315  2B17               	goto	u1210
  2767     0316                     u1211:
  2768     0316  2B18               	goto	l1148
  2769     0317                     u1210:
  2770     0317                     l1146:
  2771     0317  1439               	bsf	___fldiv@aexp,0
  2772     0318                     l1148:
  2773     0318  0839               	movf	___fldiv@aexp,w
  2774     0319  1903               	btfsc	3,2
  2775     031A  2B1C               	goto	u1221
  2776     031B  2B1D               	goto	u1220
  2777     031C                     u1221:
  2778     031C  2B2D               	goto	l1158
  2779     031D                     u1220:
  2780     031D                     l1150:
  2781     031D  0A39               	incf	___fldiv@aexp,w
  2782     031E  1D03               	btfss	3,2
  2783     031F  2B21               	goto	u1231
  2784     0320  2B22               	goto	u1230
  2785     0321                     u1231:
  2786     0321  2B2A               	goto	l1154
  2787     0322                     u1230:
  2788     0322                     l1152:
  2789     0322  3000               	movlw	0
  2790     0323  00A3               	movwf	___fldiv@a+3
  2791     0324  3000               	movlw	0
  2792     0325  00A2               	movwf	___fldiv@a+2
  2793     0326  3000               	movlw	0
  2794     0327  00A1               	movwf	___fldiv@a+1
  2795     0328  3000               	movlw	0
  2796     0329  00A0               	movwf	___fldiv@a
  2797     032A                     l1154:
  2798     032A  17A2               	bsf	___fldiv@a+2,7
  2799     032B                     l1156:
  2800     032B  01A3               	clrf	___fldiv@a+3
  2801     032C  2B35               	goto	l519
  2802     032D                     l1158:
  2803     032D  3000               	movlw	0
  2804     032E  00A3               	movwf	___fldiv@a+3
  2805     032F  3000               	movlw	0
  2806     0330  00A2               	movwf	___fldiv@a+2
  2807     0331  3000               	movlw	0
  2808     0332  00A1               	movwf	___fldiv@a+1
  2809     0333  3000               	movlw	0
  2810     0334  00A0               	movwf	___fldiv@a
  2811     0335                     l519:
  2812     0335  0823               	movf	___fldiv@a+3,w
  2813     0336  0422               	iorwf	___fldiv@a+2,w
  2814     0337  0421               	iorwf	___fldiv@a+1,w
  2815     0338  0420               	iorwf	___fldiv@a,w
  2816     0339  1D03               	skipz
  2817     033A  2B3C               	goto	u1241
  2818     033B  2B3D               	goto	u1240
  2819     033C                     u1241:
  2820     033C  2B54               	goto	l1168
  2821     033D                     u1240:
  2822     033D                     l1160:
  2823     033D  3000               	movlw	0
  2824     033E  00A7               	movwf	___fldiv@b+3
  2825     033F  3000               	movlw	0
  2826     0340  00A6               	movwf	___fldiv@b+2
  2827     0341  3000               	movlw	0
  2828     0342  00A5               	movwf	___fldiv@b+1
  2829     0343  3000               	movlw	0
  2830     0344  00A4               	movwf	___fldiv@b
  2831     0345  3080               	movlw	128
  2832     0346  04A6               	iorwf	___fldiv@b+2,f
  2833     0347  307F               	movlw	127
  2834     0348  04A7               	iorwf	___fldiv@b+3,f
  2835     0349                     l1162:
  2836     0349  0831               	movf	___fldiv@sign,w
  2837     034A  04A7               	iorwf	___fldiv@b+3,f
  2838     034B                     l1164:
  2839     034B  0827               	movf	___fldiv@b+3,w
  2840     034C  00A3               	movwf	?___fldiv+3
  2841     034D  0826               	movf	___fldiv@b+2,w
  2842     034E  00A2               	movwf	?___fldiv+2
  2843     034F  0825               	movf	___fldiv@b+1,w
  2844     0350  00A1               	movwf	?___fldiv+1
  2845     0351  0824               	movf	___fldiv@b,w
  2846     0352  00A0               	movwf	?___fldiv
  2847     0353  2CA9               	goto	l521
  2848     0354                     l1168:
  2849     0354  0838               	movf	___fldiv@bexp,w
  2850     0355  1D03               	btfss	3,2
  2851     0356  2B58               	goto	u1251
  2852     0357  2B59               	goto	u1250
  2853     0358                     u1251:
  2854     0358  2B62               	goto	l1174
  2855     0359                     u1250:
  2856     0359                     l1170:
  2857     0359  3000               	movlw	0
  2858     035A  00A3               	movwf	?___fldiv+3
  2859     035B  3000               	movlw	0
  2860     035C  00A2               	movwf	?___fldiv+2
  2861     035D  3000               	movlw	0
  2862     035E  00A1               	movwf	?___fldiv+1
  2863     035F  3000               	movlw	0
  2864     0360  00A0               	movwf	?___fldiv
  2865     0361  2CA9               	goto	l521
  2866     0362                     l1174:
  2867     0362  0838               	movf	___fldiv@bexp,w
  2868     0363  00A8               	movwf	??___fldiv
  2869     0364  01A9               	clrf	??___fldiv+1
  2870     0365  0829               	movf	??___fldiv+1,w
  2871     0366  00AB               	movwf	??___fldiv+3
  2872     0367  0839               	movf	___fldiv@aexp,w
  2873     0368  0228               	subwf	??___fldiv,w
  2874     0369  00AA               	movwf	??___fldiv+2
  2875     036A  1C03               	skipc
  2876     036B  03AB               	decf	??___fldiv+3,f
  2877     036C  082A               	movf	??___fldiv+2,w
  2878     036D  3E7F               	addlw	127
  2879     036E  00B2               	movwf	___fldiv@new_exp
  2880     036F  082B               	movf	??___fldiv+3,w
  2881     0370  1803               	skipnc
  2882     0371  3E01               	addlw	1
  2883     0372  3E00               	addlw	0
  2884     0373  00B3               	movwf	___fldiv@new_exp+1
  2885     0374                     l1176:
  2886     0374  0827               	movf	___fldiv@b+3,w
  2887     0375  00B0               	movwf	___fldiv@rem+3
  2888     0376  0826               	movf	___fldiv@b+2,w
  2889     0377  00AF               	movwf	___fldiv@rem+2
  2890     0378  0825               	movf	___fldiv@b+1,w
  2891     0379  00AE               	movwf	___fldiv@rem+1
  2892     037A  0824               	movf	___fldiv@b,w
  2893     037B  00AD               	movwf	___fldiv@rem
  2894     037C                     l1178:
  2895     037C  3000               	movlw	0
  2896     037D  00A7               	movwf	___fldiv@b+3
  2897     037E  3000               	movlw	0
  2898     037F  00A6               	movwf	___fldiv@b+2
  2899     0380  3000               	movlw	0
  2900     0381  00A5               	movwf	___fldiv@b+1
  2901     0382  3000               	movlw	0
  2902     0383  00A4               	movwf	___fldiv@b
  2903     0384                     l1180:
  2904     0384  3000               	movlw	0
  2905     0385  00B7               	movwf	___fldiv@grs+3
  2906     0386  3000               	movlw	0
  2907     0387  00B6               	movwf	___fldiv@grs+2
  2908     0388  3000               	movlw	0
  2909     0389  00B5               	movwf	___fldiv@grs+1
  2910     038A  3000               	movlw	0
  2911     038B  00B4               	movwf	___fldiv@grs
  2912     038C                     l1182:
  2913     038C  01B9               	clrf	___fldiv@aexp
  2914     038D  2BD6               	goto	l1202
  2915     038E                     l1184:
  2916     038E  0839               	movf	___fldiv@aexp,w
  2917     038F  1903               	btfsc	3,2
  2918     0390  2B92               	goto	u1261
  2919     0391  2B93               	goto	u1260
  2920     0392                     u1261:
  2921     0392  2BB3               	goto	l1194
  2922     0393                     u1260:
  2923     0393                     l1186:
  2924     0393  3001               	movlw	1
  2925     0394  00A8               	movwf	??___fldiv
  2926     0395                     u1275:
  2927     0395  1003               	clrc
  2928     0396  0DAD               	rlf	___fldiv@rem,f
  2929     0397  0DAE               	rlf	___fldiv@rem+1,f
  2930     0398  0DAF               	rlf	___fldiv@rem+2,f
  2931     0399  0DB0               	rlf	___fldiv@rem+3,f
  2932     039A  0BA8               	decfsz	??___fldiv,f
  2933     039B  2B95               	goto	u1275
  2934     039C  3001               	movlw	1
  2935     039D  00A8               	movwf	??___fldiv
  2936     039E                     u1285:
  2937     039E  1003               	clrc
  2938     039F  0DA4               	rlf	___fldiv@b,f
  2939     03A0  0DA5               	rlf	___fldiv@b+1,f
  2940     03A1  0DA6               	rlf	___fldiv@b+2,f
  2941     03A2  0DA7               	rlf	___fldiv@b+3,f
  2942     03A3  0BA8               	decfsz	??___fldiv,f
  2943     03A4  2B9E               	goto	u1285
  2944     03A5                     l1188:
  2945     03A5  1FB7               	btfss	___fldiv@grs+3,7
  2946     03A6  2BA8               	goto	u1291
  2947     03A7  2BA9               	goto	u1290
  2948     03A8                     u1291:
  2949     03A8  2BAA               	goto	l1192
  2950     03A9                     u1290:
  2951     03A9                     l1190:
  2952     03A9  1424               	bsf	___fldiv@b,0
  2953     03AA                     l1192:
  2954     03AA  3001               	movlw	1
  2955     03AB  00A8               	movwf	??___fldiv
  2956     03AC                     u1305:
  2957     03AC  1003               	clrc
  2958     03AD  0DB4               	rlf	___fldiv@grs,f
  2959     03AE  0DB5               	rlf	___fldiv@grs+1,f
  2960     03AF  0DB6               	rlf	___fldiv@grs+2,f
  2961     03B0  0DB7               	rlf	___fldiv@grs+3,f
  2962     03B1  0BA8               	decfsz	??___fldiv,f
  2963     03B2  2BAC               	goto	u1305
  2964     03B3                     l1194:
  2965     03B3  0823               	movf	___fldiv@a+3,w
  2966     03B4  0230               	subwf	___fldiv@rem+3,w
  2967     03B5  1D03               	skipz
  2968     03B6  2BC1               	goto	u1315
  2969     03B7  0822               	movf	___fldiv@a+2,w
  2970     03B8  022F               	subwf	___fldiv@rem+2,w
  2971     03B9  1D03               	skipz
  2972     03BA  2BC1               	goto	u1315
  2973     03BB  0821               	movf	___fldiv@a+1,w
  2974     03BC  022E               	subwf	___fldiv@rem+1,w
  2975     03BD  1D03               	skipz
  2976     03BE  2BC1               	goto	u1315
  2977     03BF  0820               	movf	___fldiv@a,w
  2978     03C0  022D               	subwf	___fldiv@rem,w
  2979     03C1                     u1315:
  2980     03C1  1C03               	skipc
  2981     03C2  2BC4               	goto	u1311
  2982     03C3  2BC5               	goto	u1310
  2983     03C4                     u1311:
  2984     03C4  2BD4               	goto	l1200
  2985     03C5                     u1310:
  2986     03C5                     l1196:
  2987     03C5  1737               	bsf	___fldiv@grs+3,6
  2988     03C6                     l1198:
  2989     03C6  0820               	movf	___fldiv@a,w
  2990     03C7  02AD               	subwf	___fldiv@rem,f
  2991     03C8  0821               	movf	___fldiv@a+1,w
  2992     03C9  1C03               	skipc
  2993     03CA  0F21               	incfsz	___fldiv@a+1,w
  2994     03CB  02AE               	subwf	___fldiv@rem+1,f
  2995     03CC  0822               	movf	___fldiv@a+2,w
  2996     03CD  1C03               	skipc
  2997     03CE  0F22               	incfsz	___fldiv@a+2,w
  2998     03CF  02AF               	subwf	___fldiv@rem+2,f
  2999     03D0  0823               	movf	___fldiv@a+3,w
  3000     03D1  1C03               	skipc
  3001     03D2  0F23               	incfsz	___fldiv@a+3,w
  3002     03D3  02B0               	subwf	___fldiv@rem+3,f
  3003     03D4                     l1200:
  3004     03D4  3001               	movlw	1
  3005     03D5  07B9               	addwf	___fldiv@aexp,f
  3006     03D6                     l1202:
  3007     03D6  301A               	movlw	26
  3008     03D7  0239               	subwf	___fldiv@aexp,w
  3009     03D8  1C03               	skipc
  3010     03D9  2BDB               	goto	u1321
  3011     03DA  2BDC               	goto	u1320
  3012     03DB                     u1321:
  3013     03DB  2B8E               	goto	l1184
  3014     03DC                     u1320:
  3015     03DC                     l1204:
  3016     03DC  0830               	movf	___fldiv@rem+3,w
  3017     03DD  042F               	iorwf	___fldiv@rem+2,w
  3018     03DE  042E               	iorwf	___fldiv@rem+1,w
  3019     03DF  042D               	iorwf	___fldiv@rem,w
  3020     03E0  1903               	skipnz
  3021     03E1  2BE3               	goto	u1331
  3022     03E2  2BE4               	goto	u1330
  3023     03E3                     u1331:
  3024     03E3  2C03               	goto	l1218
  3025     03E4                     u1330:
  3026     03E4                     l1206:
  3027     03E4  1434               	bsf	___fldiv@grs,0
  3028     03E5  2C03               	goto	l1218
  3029     03E6                     l1208:
  3030     03E6  3001               	movlw	1
  3031     03E7  00A8               	movwf	??___fldiv
  3032     03E8                     u1345:
  3033     03E8  1003               	clrc
  3034     03E9  0DA4               	rlf	___fldiv@b,f
  3035     03EA  0DA5               	rlf	___fldiv@b+1,f
  3036     03EB  0DA6               	rlf	___fldiv@b+2,f
  3037     03EC  0DA7               	rlf	___fldiv@b+3,f
  3038     03ED  0BA8               	decfsz	??___fldiv,f
  3039     03EE  2BE8               	goto	u1345
  3040     03EF                     l1210:
  3041     03EF  1FB7               	btfss	___fldiv@grs+3,7
  3042     03F0  2BF2               	goto	u1351
  3043     03F1  2BF3               	goto	u1350
  3044     03F2                     u1351:
  3045     03F2  2BF4               	goto	l1214
  3046     03F3                     u1350:
  3047     03F3                     l1212:
  3048     03F3  1424               	bsf	___fldiv@b,0
  3049     03F4                     l1214:
  3050     03F4  3001               	movlw	1
  3051     03F5  00A8               	movwf	??___fldiv
  3052     03F6                     u1365:
  3053     03F6  1003               	clrc
  3054     03F7  0DB4               	rlf	___fldiv@grs,f
  3055     03F8  0DB5               	rlf	___fldiv@grs+1,f
  3056     03F9  0DB6               	rlf	___fldiv@grs+2,f
  3057     03FA  0DB7               	rlf	___fldiv@grs+3,f
  3058     03FB  0BA8               	decfsz	??___fldiv,f
  3059     03FC  2BF6               	goto	u1365
  3060     03FD                     l1216:
  3061     03FD  30FF               	movlw	255
  3062     03FE  07B2               	addwf	___fldiv@new_exp,f
  3063     03FF  1803               	skipnc
  3064     0400  0AB3               	incf	___fldiv@new_exp+1,f
  3065     0401  30FF               	movlw	255
  3066     0402  07B3               	addwf	___fldiv@new_exp+1,f
  3067     0403                     l1218:
  3068     0403  1FA6               	btfss	___fldiv@b+2,7
  3069     0404  2C06               	goto	u1371
  3070     0405  2C07               	goto	u1370
  3071     0406                     u1371:
  3072     0406  2BE6               	goto	l1208
  3073     0407                     u1370:
  3074     0407                     l1220:
  3075     0407  01B9               	clrf	___fldiv@aexp
  3076     0408                     l1222:
  3077     0408  1FB7               	btfss	___fldiv@grs+3,7
  3078     0409  2C0B               	goto	u1381
  3079     040A  2C0C               	goto	u1380
  3080     040B                     u1381:
  3081     040B  2C28               	goto	l1230
  3082     040C                     u1380:
  3083     040C                     l1224:
  3084     040C  30FF               	movlw	255
  3085     040D  0534               	andwf	___fldiv@grs,w
  3086     040E  00A8               	movwf	??___fldiv
  3087     040F  30FF               	movlw	255
  3088     0410  0535               	andwf	___fldiv@grs+1,w
  3089     0411  00A9               	movwf	??___fldiv+1
  3090     0412  30FF               	movlw	255
  3091     0413  0536               	andwf	___fldiv@grs+2,w
  3092     0414  00AA               	movwf	??___fldiv+2
  3093     0415  307F               	movlw	127
  3094     0416  0537               	andwf	___fldiv@grs+3,w
  3095     0417  00AB               	movwf	??___fldiv+3
  3096     0418  082B               	movf	??___fldiv+3,w
  3097     0419  042A               	iorwf	??___fldiv+2,w
  3098     041A  0429               	iorwf	??___fldiv+1,w
  3099     041B  0428               	iorwf	??___fldiv,w
  3100     041C  1903               	skipnz
  3101     041D  2C1F               	goto	u1391
  3102     041E  2C20               	goto	u1390
  3103     041F                     u1391:
  3104     041F  2C23               	goto	l535
  3105     0420                     u1390:
  3106     0420                     l1226:
  3107     0420  3001               	movlw	1
  3108     0421  00B9               	movwf	___fldiv@aexp
  3109     0422  2C28               	goto	l1230
  3110     0423                     l535:
  3111     0423  1C24               	btfss	___fldiv@b,0
  3112     0424  2C26               	goto	u1401
  3113     0425  2C27               	goto	u1400
  3114     0426                     u1401:
  3115     0426  2C28               	goto	l1230
  3116     0427                     u1400:
  3117     0427  2C20               	goto	l1226
  3118     0428                     l1230:
  3119     0428  0839               	movf	___fldiv@aexp,w
  3120     0429  1903               	btfsc	3,2
  3121     042A  2C2C               	goto	u1411
  3122     042B  2C2D               	goto	u1410
  3123     042C                     u1411:
  3124     042C  2C5E               	goto	l1240
  3125     042D                     u1410:
  3126     042D                     l1232:
  3127     042D  3001               	movlw	1
  3128     042E  07A4               	addwf	___fldiv@b,f
  3129     042F  3000               	movlw	0
  3130     0430  1803               	skipnc
  3131     0431  3001               	movlw	1
  3132     0432  07A5               	addwf	___fldiv@b+1,f
  3133     0433  3000               	movlw	0
  3134     0434  1803               	skipnc
  3135     0435  3001               	movlw	1
  3136     0436  07A6               	addwf	___fldiv@b+2,f
  3137     0437  3000               	movlw	0
  3138     0438  1803               	skipnc
  3139     0439  3001               	movlw	1
  3140     043A  07A7               	addwf	___fldiv@b+3,f
  3141     043B                     l1234:
  3142     043B  1C27               	btfss	___fldiv@b+3,0
  3143     043C  2C3E               	goto	u1421
  3144     043D  2C3F               	goto	u1420
  3145     043E                     u1421:
  3146     043E  2C5E               	goto	l1240
  3147     043F                     u1420:
  3148     043F                     l1236:
  3149     043F  0824               	movf	___fldiv@b,w
  3150     0440  00A8               	movwf	??___fldiv
  3151     0441  0825               	movf	___fldiv@b+1,w
  3152     0442  00A9               	movwf	??___fldiv+1
  3153     0443  0826               	movf	___fldiv@b+2,w
  3154     0444  00AA               	movwf	??___fldiv+2
  3155     0445  0827               	movf	___fldiv@b+3,w
  3156     0446  00AB               	movwf	??___fldiv+3
  3157     0447  3001               	movlw	1
  3158     0448  00AC               	movwf	??___fldiv+4
  3159     0449                     u1435:
  3160     0449  0D2B               	rlf	??___fldiv+3,w
  3161     044A  0CAB               	rrf	??___fldiv+3,f
  3162     044B  0CAA               	rrf	??___fldiv+2,f
  3163     044C  0CA9               	rrf	??___fldiv+1,f
  3164     044D  0CA8               	rrf	??___fldiv,f
  3165     044E                     u1430:
  3166     044E  0BAC               	decfsz	??___fldiv+4,f
  3167     044F  2C49               	goto	u1435
  3168     0450  082B               	movf	??___fldiv+3,w
  3169     0451  00A7               	movwf	___fldiv@b+3
  3170     0452  082A               	movf	??___fldiv+2,w
  3171     0453  00A6               	movwf	___fldiv@b+2
  3172     0454  0829               	movf	??___fldiv+1,w
  3173     0455  00A5               	movwf	___fldiv@b+1
  3174     0456  0828               	movf	??___fldiv,w
  3175     0457  00A4               	movwf	___fldiv@b
  3176     0458                     l1238:
  3177     0458  3001               	movlw	1
  3178     0459  07B2               	addwf	___fldiv@new_exp,f
  3179     045A  1803               	skipnc
  3180     045B  0AB3               	incf	___fldiv@new_exp+1,f
  3181     045C  3000               	movlw	0
  3182     045D  07B3               	addwf	___fldiv@new_exp+1,f
  3183     045E                     l1240:
  3184     045E  0833               	movf	___fldiv@new_exp+1,w
  3185     045F  3A80               	xorlw	128
  3186     0460  00FF               	movwf	btemp1
  3187     0461  3080               	movlw	128
  3188     0462  027F               	subwf	btemp1,w
  3189     0463  1D03               	skipz
  3190     0464  2C67               	goto	u1445
  3191     0465  30FF               	movlw	255
  3192     0466  0232               	subwf	___fldiv@new_exp,w
  3193     0467                     u1445:
  3194     0467  1C03               	skipc
  3195     0468  2C6A               	goto	u1441
  3196     0469  2C6B               	goto	u1440
  3197     046A                     u1441:
  3198     046A  2C79               	goto	l1244
  3199     046B                     u1440:
  3200     046B                     l1242:
  3201     046B  30FF               	movlw	255
  3202     046C  1283               	bcf	3,5	;RP0=0, select bank0
  3203     046D  1303               	bcf	3,6	;RP1=0, select bank0
  3204     046E  00B2               	movwf	___fldiv@new_exp
  3205     046F  3000               	movlw	0
  3206     0470  00B3               	movwf	___fldiv@new_exp+1
  3207     0471  3000               	movlw	0
  3208     0472  00A7               	movwf	___fldiv@b+3
  3209     0473  3000               	movlw	0
  3210     0474  00A6               	movwf	___fldiv@b+2
  3211     0475  3000               	movlw	0
  3212     0476  00A5               	movwf	___fldiv@b+1
  3213     0477  3000               	movlw	0
  3214     0478  00A4               	movwf	___fldiv@b
  3215     0479                     l1244:
  3216     0479  1283               	bcf	3,5	;RP0=0, select bank0
  3217     047A  1303               	bcf	3,6	;RP1=0, select bank0
  3218     047B  0833               	movf	___fldiv@new_exp+1,w
  3219     047C  3A80               	xorlw	128
  3220     047D  00FF               	movwf	btemp1
  3221     047E  3080               	movlw	128
  3222     047F  027F               	subwf	btemp1,w
  3223     0480  1D03               	skipz
  3224     0481  2C84               	goto	u1455
  3225     0482  3001               	movlw	1
  3226     0483  0232               	subwf	___fldiv@new_exp,w
  3227     0484                     u1455:
  3228     0484  1803               	skipnc
  3229     0485  2C87               	goto	u1451
  3230     0486  2C88               	goto	u1450
  3231     0487                     u1451:
  3232     0487  2C95               	goto	l541
  3233     0488                     u1450:
  3234     0488                     l1246:
  3235     0488  1283               	bcf	3,5	;RP0=0, select bank0
  3236     0489  1303               	bcf	3,6	;RP1=0, select bank0
  3237     048A  01B2               	clrf	___fldiv@new_exp
  3238     048B  01B3               	clrf	___fldiv@new_exp+1
  3239     048C                     l1248:
  3240     048C  3000               	movlw	0
  3241     048D  00A7               	movwf	___fldiv@b+3
  3242     048E  3000               	movlw	0
  3243     048F  00A6               	movwf	___fldiv@b+2
  3244     0490  3000               	movlw	0
  3245     0491  00A5               	movwf	___fldiv@b+1
  3246     0492  3000               	movlw	0
  3247     0493  00A4               	movwf	___fldiv@b
  3248     0494                     l1250:
  3249     0494  01B1               	clrf	___fldiv@sign
  3250     0495                     l541:
  3251     0495  1283               	bcf	3,5	;RP0=0, select bank0
  3252     0496  1303               	bcf	3,6	;RP1=0, select bank0
  3253     0497  0832               	movf	___fldiv@new_exp,w
  3254     0498  00B8               	movwf	___fldiv@bexp
  3255     0499                     l1252:
  3256     0499  1C38               	btfss	___fldiv@bexp,0
  3257     049A  2C9C               	goto	u1461
  3258     049B  2C9D               	goto	u1460
  3259     049C                     u1461:
  3260     049C  2C9F               	goto	l1256
  3261     049D                     u1460:
  3262     049D                     l1254:
  3263     049D  17A6               	bsf	___fldiv@b+2,7
  3264     049E  2CA1               	goto	l543
  3265     049F                     l1256:
  3266     049F  307F               	movlw	127
  3267     04A0  05A6               	andwf	___fldiv@b+2,f
  3268     04A1                     l543:
  3269     04A1  0838               	movf	___fldiv@bexp,w
  3270     04A2  00A8               	movwf	??___fldiv
  3271     04A3  1003               	clrc
  3272     04A4  0C28               	rrf	??___fldiv,w
  3273     04A5  00A7               	movwf	___fldiv@b+3
  3274     04A6  0831               	movf	___fldiv@sign,w
  3275     04A7  04A7               	iorwf	___fldiv@b+3,f
  3276     04A8  2B4B               	goto	l1164
  3277     04A9                     l521:
  3278     04A9  0008               	return
  3279     04AA                     __end_of___fldiv:
  3280                           
  3281                           	psect	text9
  3282     005B                     __ptext9:	
  3283 ;; *************** function _init_config *****************
  3284 ;; Defined at:
  3285 ;;		line 42 in file "main.c"
  3286 ;; Parameters:    Size  Location     Type
  3287 ;;		None
  3288 ;; Auto vars:     Size  Location     Type
  3289 ;;		None
  3290 ;; Return value:  Size  Location     Type
  3291 ;;                  1    wreg      void 
  3292 ;; Registers used:
  3293 ;;		wreg, status,2, status,0, pclath, cstack
  3294 ;; Tracked objects:
  3295 ;;		On entry : 0/0
  3296 ;;		On exit  : 0/0
  3297 ;;		Unchanged: 0/0
  3298 ;; Data sizes:     COMMON   BANK0   BANK1   BANK3   BANK2
  3299 ;;      Params:         0       0       0       0       0
  3300 ;;      Locals:         0       0       0       0       0
  3301 ;;      Temps:          0       0       0       0       0
  3302 ;;      Totals:         0       0       0       0       0
  3303 ;;Total ram usage:        0 bytes
  3304 ;; Hardware stack levels used: 1
  3305 ;; Hardware stack levels required when called: 1
  3306 ;; This function calls:
  3307 ;;		_init_digital_keypad
  3308 ;;		_init_pwm
  3309 ;; This function is called by:
  3310 ;;		_main
  3311 ;; This function uses a non-reentrant model
  3312 ;;
  3313                           
  3314     005B                     _init_config:	
  3315                           ;psect for function _init_config
  3316                           
  3317     005B                     l1474:	
  3318                           ;incstack = 0
  3319                           ; Regs used in _init_config: [wreg+status,2+status,0+pclath+cstack]
  3320                           
  3321                           
  3322                           ;main.c: 43:     while (1) {
  3323     005B  1283               	bcf	3,5	;RP0=0, select bank0
  3324     005C  1303               	bcf	3,6	;RP1=0, select bank0
  3325     005D  0188               	clrf	8	;volatile
  3326                           
  3327                           ;main.c: 44:         key = read_digital_keypad(0);
  3328     005E  1683               	bsf	3,5	;RP0=1, select bank1
  3329     005F  1303               	bcf	3,6	;RP1=0, select bank1
  3330     0060  0188               	clrf	8	;volatile
  3331     0061                     l1476:
  3332                           
  3333                           ;main.c: 46:         pwm_control(key);
  3334     0061  120A  118A  2048  120A  118A  	fcall	_init_digital_keypad
  3335     0066                     l1478:
  3336                           
  3337                           ;main.c: 47: 
  3338     0066  120A  118A  204E  120A  118A  	fcall	_init_pwm
  3339     006B                     l28:
  3340     006B  0008               	return
  3341     006C                     __end_of_init_config:
  3342                           
  3343                           	psect	text10
  3344     004E                     __ptext10:	
  3345 ;; *************** function _init_pwm *****************
  3346 ;; Defined at:
  3347 ;;		line 3 in file "pwm.c"
  3348 ;; Parameters:    Size  Location     Type
  3349 ;;		None
  3350 ;; Auto vars:     Size  Location     Type
  3351 ;;		None
  3352 ;; Return value:  Size  Location     Type
  3353 ;;                  1    wreg      void 
  3354 ;; Registers used:
  3355 ;;		None
  3356 ;; Tracked objects:
  3357 ;;		On entry : 0/0
  3358 ;;		On exit  : 0/0
  3359 ;;		Unchanged: 0/0
  3360 ;; Data sizes:     COMMON   BANK0   BANK1   BANK3   BANK2
  3361 ;;      Params:         0       0       0       0       0
  3362 ;;      Locals:         0       0       0       0       0
  3363 ;;      Temps:          0       0       0       0       0
  3364 ;;      Totals:         0       0       0       0       0
  3365 ;;Total ram usage:        0 bytes
  3366 ;; Hardware stack levels used: 1
  3367 ;; This function calls:
  3368 ;;		Nothing
  3369 ;; This function is called by:
  3370 ;;		_init_config
  3371 ;; This function uses a non-reentrant model
  3372 ;;
  3373                           
  3374     004E                     _init_pwm:	
  3375                           ;psect for function _init_pwm
  3376                           
  3377     004E                     l1454:	
  3378                           ;incstack = 0
  3379                           ; Regs used in _init_pwm: []
  3380                           
  3381                           
  3382                           ;pwm.c: 6:     TRISC2 = 0;
  3383     004E  1683               	bsf	3,5	;RP0=1, select bank1
  3384     004F  1303               	bcf	3,6	;RP1=0, select bank1
  3385     0050  1107               	bcf	7,2	;volatile
  3386                           
  3387                           ;pwm.c: 9:     PR2 = 249;
  3388     0051  30F9               	movlw	249
  3389     0052  0092               	movwf	18	;volatile
  3390                           
  3391                           ;pwm.c: 12:     T2CKPS0 = 1;
  3392     0053  1283               	bcf	3,5	;RP0=0, select bank0
  3393     0054  1303               	bcf	3,6	;RP1=0, select bank0
  3394     0055  1412               	bsf	18,0	;volatile
  3395                           
  3396                           ;pwm.c: 13:     T2CKPS1 = 0;
  3397     0056  1092               	bcf	18,1	;volatile
  3398                           
  3399                           ;pwm.c: 16:     TMR2ON = 1;
  3400     0057  1512               	bsf	18,2	;volatile
  3401                           
  3402                           ;pwm.c: 19:     CCP1CON = 0x0C;
  3403     0058  300C               	movlw	12
  3404     0059  0097               	movwf	23	;volatile
  3405     005A                     l56:
  3406     005A  0008               	return
  3407     005B                     __end_of_init_pwm:
  3408                           
  3409                           	psect	text11
  3410     0048                     __ptext11:	
  3411 ;; *************** function _init_digital_keypad *****************
  3412 ;; Defined at:
  3413 ;;		line 4 in file "digital_keypad.c"
  3414 ;; Parameters:    Size  Location     Type
  3415 ;;		None
  3416 ;; Auto vars:     Size  Location     Type
  3417 ;;		None
  3418 ;; Return value:  Size  Location     Type
  3419 ;;                  1    wreg      void 
  3420 ;; Registers used:
  3421 ;;		wreg, status,2
  3422 ;; Tracked objects:
  3423 ;;		On entry : 0/0
  3424 ;;		On exit  : 0/0
  3425 ;;		Unchanged: 0/0
  3426 ;; Data sizes:     COMMON   BANK0   BANK1   BANK3   BANK2
  3427 ;;      Params:         0       0       0       0       0
  3428 ;;      Locals:         0       0       0       0       0
  3429 ;;      Temps:          0       0       0       0       0
  3430 ;;      Totals:         0       0       0       0       0
  3431 ;;Total ram usage:        0 bytes
  3432 ;; Hardware stack levels used: 1
  3433 ;; This function calls:
  3434 ;;		Nothing
  3435 ;; This function is called by:
  3436 ;;		_init_config
  3437 ;; This function uses a non-reentrant model
  3438 ;;
  3439                           
  3440     0048                     _init_digital_keypad:	
  3441                           ;psect for function _init_digital_keypad
  3442                           
  3443     0048                     l1452:	
  3444                           ;incstack = 0
  3445                           ; Regs used in _init_digital_keypad: [wreg+status,2]
  3446                           
  3447                           
  3448                           ;digital_keypad.c: 7:     TRISB = TRISB | 0x3F;
  3449     0048  1683               	bsf	3,5	;RP0=1, select bank1
  3450     0049  1303               	bcf	3,6	;RP1=0, select bank1
  3451     004A  0806               	movf	6,w	;volatile
  3452     004B  383F               	iorlw	63
  3453     004C  0086               	movwf	6	;volatile
  3454     004D                     l66:
  3455     004D  0008               	return
  3456     004E                     __end_of_init_digital_keypad:
  3457     0002                     ___latbits      equ	2
  3458     007E                     btemp           set	126	;btemp
  3459     007E                     btemp0          set	126
  3460     007F                     btemp1          set	127
  3461     007E                     wtemp0          set	126
  3462     007F                     wtemp0a         set	127
  3463     007F                     ttemp0a         set	127
  3464     0080                     ltemp0a         set	128
  3465                           
  3466                           	psect	idloc
  3467                           
  3468                           ;Config register IDLOC0 @ 0x2000
  3469                           ;	unspecified, using default values
  3470     2000                     	org	8192
  3471     2000  3FFF               	dw	16383
  3472                           
  3473                           ;Config register IDLOC1 @ 0x2001
  3474                           ;	unspecified, using default values
  3475     2001                     	org	8193
  3476     2001  3FFF               	dw	16383
  3477                           
  3478                           ;Config register IDLOC2 @ 0x2002
  3479                           ;	unspecified, using default values
  3480     2002                     	org	8194
  3481     2002  3FFF               	dw	16383
  3482                           
  3483                           ;Config register IDLOC3 @ 0x2003
  3484                           ;	unspecified, using default values
  3485     2003                     	org	8195
  3486     2003  3FFF               	dw	16383
  3487                           
  3488                           	psect	config
  3489                           
  3490                           ;Config register CONFIG @ 0x2007
  3491                           ;	Oscillator Selection bits
  3492                           ;	FOSC = 0x3, unprogrammed default
  3493                           ;	Watchdog Timer Enable bit
  3494                           ;	WDTE = OFF, WDT disabled
  3495                           ;	Power-up Timer Enable bit
  3496                           ;	PWRTE = 0x1, unprogrammed default
  3497                           ;	Brown-out Reset Enable bit
  3498                           ;	BOREN = 0x1, unprogrammed default
  3499                           ;	Low-Voltage (Single-Supply) In-Circuit Serial Programming Enable bit
  3500                           ;	LVP = 0x1, unprogrammed default
  3501                           ;	Data EEPROM Memory Code Protection bit
  3502                           ;	CPD = 0x1, unprogrammed default
  3503                           ;	Flash Program Memory Write Enable bits
  3504                           ;	WRT = 0x3, unprogrammed default
  3505                           ;	In-Circuit Debugger Mode bit
  3506                           ;	DEBUG = 0x1, unprogrammed default
  3507                           ;	Flash Program Memory Code Protection bit
  3508                           ;	CP = 0x1, unprogrammed default
  3509     2007                     	org	8199
  3510     2007  3FFB               	dw	16379

Data Sizes:
    Strings     0
    Constant    0
    Data        2
    BSS         2
    Persistent  0
    Stack       0

Auto Spaces:
    Space          Size  Autos    Used
    COMMON           14     14      14
    BANK0            80     77      79
    BANK1            80      0       2
    BANK3            96      0       0
    BANK2            96      0       0

Pointer List with Targets:

    None.

Critical Paths under _main in COMMON

    _set_pwm_duty->___xxtofl
    ___fltol->___xxtofl
    ___flmul->___xxtofl
    ___fldiv->___xxtofl

Critical Paths under _main in BANK0

    _main->_pwm_control
    _pwm_control->_set_pwm_duty
    _set_pwm_duty->___fltol
    ___fltol->___flmul
    ___flmul->___fldiv

Critical Paths under _main in BANK1

    None.

Critical Paths under _main in BANK3

    None.

Critical Paths under _main in BANK2

    None.

Call Graph Tables:

 ---------------------------------------------------------------------------------
 (Depth) Function   	        Calls       Base Space   Used Autos Params    Refs
 ---------------------------------------------------------------------------------
 (0) _main                                                 3     3      0    3531
                                             74 BANK0      3     3      0
                        _init_config
                        _pwm_control
                _read_digital_keypad
 ---------------------------------------------------------------------------------
 (1) _read_digital_keypad                                  2     2      0      29
                                              0 COMMON     2     2      0
 ---------------------------------------------------------------------------------
 (1) _pwm_control                                          1     1      0    3456
                                             73 BANK0      1     1      0
                       _set_pwm_duty
 ---------------------------------------------------------------------------------
 (2) _set_pwm_duty                                        11    11      0    3398
                                             62 BANK0     11    11      0
                            ___fldiv
                            ___flmul
                            ___fltol
                           ___xxtofl
 ---------------------------------------------------------------------------------
 (3) ___xxtofl                                            14    10      4     337
                                              0 COMMON    14    10      4
 ---------------------------------------------------------------------------------
 (3) ___fltol                                             10     6      4     230
                                             52 BANK0     10     6      4
                            ___fldiv (ARG)
                            ___flmul (ARG)
                           ___xxtofl (ARG)
 ---------------------------------------------------------------------------------
 (3) ___flmul                                             26    18      8    1610
                                             26 BANK0     26    18      8
                          __Umul8_16
                            ___fldiv (ARG)
                           ___xxtofl (ARG)
 ---------------------------------------------------------------------------------
 (4) __Umul8_16                                            9     7      2     139
                                              0 COMMON     9     7      2
 ---------------------------------------------------------------------------------
 (3) ___fldiv                                             26    18      8    1124
                                              0 BANK0     26    18      8
                           ___xxtofl (ARG)
 ---------------------------------------------------------------------------------
 (1) _init_config                                          0     0      0       0
                _init_digital_keypad
                           _init_pwm
 ---------------------------------------------------------------------------------
 (2) _init_pwm                                             0     0      0       0
 ---------------------------------------------------------------------------------
 (2) _init_digital_keypad                                  0     0      0       0
 ---------------------------------------------------------------------------------
 Estimated maximum stack depth 4
 ---------------------------------------------------------------------------------

 Call Graph Graphs:

 _main (ROOT)
   _init_config
     _init_digital_keypad
     _init_pwm
   _pwm_control
     _set_pwm_duty
       ___fldiv
         ___xxtofl (ARG)
       ___flmul
         __Umul8_16
         ___fldiv (ARG)
         ___xxtofl (ARG)
       ___fltol
         ___fldiv (ARG)
         ___flmul (ARG)
         ___xxtofl (ARG)
       ___xxtofl
   _read_digital_keypad

Address spaces:
Name               Size   Autos  Total    Usage
BANK3               96      0       0      0.0%
BITBANK3            96      0       0      0.0%
BANK2               96      0       0      0.0%
BITBANK2            96      0       0      0.0%
BANK1               80      0       2      2.5%
BITBANK1            80      0       0      0.0%
BANK0               80     77      79     98.8%
BITBANK0            80      0       0      0.0%
COMMON              14     14      14    100.0%
BITCOMMON           14      0       0      0.0%
DATA                 0      0      95      0.0%
STACK                0      0       0      0.0%


Microchip Technology PIC Macro Assembler V3.10 build 20250813170317 
Symbol Table                                                                                   Thu Jun  4 16:46:20 2026

                _pwm_control 00E9                 ___fldiv@aexp 0039                 ___fldiv@bexp 0038  
               ___fldiv@sign 0031                           l25 0123                           l33 00C2  
                         l28 006B                           l56 005A                           l72 00BC  
                         l66 004D                           l59 022B          __Umul8_16@word_mpld 0076  
                        l521 04A9                          l363 0184                          l603 024E  
                        l356 0199                          l604 025F                          l541 0495  
                        l605 02DF                          l366 0199                          l543 04A1  
                        l535 0423                          l519 0335                          l616 02A9  
                        l617 02B5                          l609 028D                          l571 07E1  
                        l580 0092                          l565 075D                          l559 07EB  
                        l578 0080                          _PR2 0092                 ___flmul@aexp 004C  
               ___flmul@bexp 004D                 ___flmul@sign 0047                 ___flmul@temp 0052  
               ___flmul@prod 004E                 ___fltol@exp1 005D                         l1200 03D4  
                       l1120 02E4                         l1112 0179                         l1104 0162  
                       l1210 03EF                         l1202 03D6                         l1130 02F4  
                       l1122 02E6                         l1114 0189                         l1106 0172  
                       l1220 0407                         l1212 03F3                         l1204 03DC  
                       l1140 030C                         l1132 02F9                         l1124 02EA  
                       l1300 04FD                         l1116 018E                         l1230 0428  
                       l1222 0408                         l1214 03F4                         l1206 03E4  
                       l1150 031D                         l1142 030F                         l1134 0301  
                       l1126 02EE                         l1118 02E0                         l1070 006F  
                       l1310 051E                         l1302 0502                         l1232 042D  
                       l1240 045E                         l1224 040C                         l1216 03FD  
                       l1208 03E6                         l1160 033D                         l1152 0322  
                       l1144 0313                         l1136 0302                         l1128 02EF  
                       l1072 0076                         l1400 07E3                         l1320 05A8  
                       l1312 052B                         l1304 0507                         l1250 0494  
                       l1242 046B                         l1234 043B                         l1226 0420  
                       l1218 0403                         l1170 0359                         l1162 0349  
                       l1154 032A                         l1146 0317                         l1138 0304  
                       l1074 007A                         l1330 0606                         l1322 05C4  
                       l1314 0546                         l1090 014B                         l1082 0124  
                       l1410 0246                         l1252 0499                         l1244 0479  
                       l1236 043F                         l1180 0384                         l1164 034B  
                       l1156 032B                         l1148 0318                         l1076 0089  
                       l1068 006D                         l1340 0690                         l1332 0623  
                       l1324 05CD                         l1316 0562                         l1308 0510  
                       l1092 014C                         l1084 012F                         l1420 0274  
                       l1412 0256                         l1404 022D                         l1500 00B0  
                       l1254 049D                         l1246 0488                         l1238 0458  
                       l1190 03A9                         l1182 038C                         l1174 0362  
                       l1158 032D                         l1078 008E                         l1350 0720  
                       l1342 06BB                         l1334 063A                         l1326 05DB  
                       l1318 058C                         l1270 04B8                         l1262 04AA  
                       l1094 0154                         l1430 02A3                         l1422 0276  
                       l1406 0232                         l1502 00B9                         l1510 00CB  
                       l1256 049F                         l1248 048C                         l1192 03AA  
                       l1184 038E                         l1176 0374                         l1168 0354  
                       l1352 0729                         l1360 073D                         l1344 06E1  
                       l1336 0657                         l1328 05F8                         l1280 04CD  
                       l1272 04B9                         l1264 04AE                         l1096 0156  
                       l1088 0138                         l1440 02D6                         l1432 02AD  
                       l1424 0284                         l1416 0262                         l1408 0236  
                       l1504 00BB                         l1512 00D1        ??_read_digital_keypad 0070  
                       l1186 0393                         l1194 03B3                         l1178 037C  
                       l1362 0741                         l1354 072D                         l1346 0709  
                       l1338 0682                         l1290 04E1                         l1282 04D5  
                       l1274 04BE                         l1266 04B0                         l1098 015A  
                       l1442 02D7                         l1434 02B7                         l1426 0294  
                       l1418 026D                         l1450 021E                         l1514 00D7  
                       l1452 0048                         l1196 03C5                         l1188 03A5  
                       l1380 0792                         l1372 0762                         l1364 0742  
                       l1356 072E                         l1348 0712                         l1292 04E6  
                       l1284 04D8                         l1276 04C3                         l1268 04B4  
                       l1436 02CD                         l1428 029F                         l1460 00FE  
                       l1508 00BD                         l1454 004E                         l1198 03C6  
                       l1390 07C9                         l1374 0767                         l1382 0798  
                       l1366 0746                         l1358 0737                         l1294 04EB  
                       l1286 04DC                         l1278 04CB                         l1438 02D2  
                       l1446 019D                         l1470 011A                         l1462 0106  
                       l1392 07CB                         l1384 07A5                         l1376 0775  
                       l1368 075A                         l1296 04F3                         l1288 04E0  
                       l1448 0212                         l1464 010C                         l1472 011C  
                       l1456 00EC                         l1480 0094                         l1474 005B  
                       l1394 07D7                         l1386 07B0                         l1378 0779  
                       l1298 04F5                         l1466 010F                         l1458 00FC  
                       l1490 00A9                         l1482 0099                         l1476 0061  
                       l1396 07DB                         l1388 07BF                         l1468 0115  
                       l1492 00AE                         l1478 0066                         l1398 07DC  
                       l1488 009E                         u1100 015A                         u1101 0159  
                       u1110 0161                         u1111 0160                         u1200 02F9  
                       u2000 0106                         u1201 02F8                         u2001 0105  
                       u1210 0317                         u1050 007A                         u1130 0171  
                       u2010 010C                         u1211 0316                         u1051 0079  
                       u1131 0170                         u2011 010B                         u1220 031D  
                       u1140 0178                         u2020 0115                         u1221 031C  
                       u1141 0177                         u1125 0163                         u2021 0114  
                       u1310 03C5                         u1230 0322                         u1070 008E  
                       u2030 011A                         u1311 03C4                         u1231 0321  
                       u1071 008D                         u2031 0119                         u1400 0427  
                       u1320 03DC                         u1240 033D                         u1160 0189  
                       u1080 012F                         u2040 0099                         u1401 0426  
                       u1321 03DB                         u1305 03AC                         u1241 033C  
                       u1065 0081                         u1161 0188                         u1081 012E  
                       u2041 0098                         u1410 042D                         u1330 03E4  
                       u1250 0359                         u1170 018E                         u1090 0146  
                       u2050 00A9                         u1411 042C                         u1331 03E3  
                       u1315 03C1                         u1251 0358                         u1171 018D  
                       u1155 017B                         u2051 00A8                         u1420 043F  
                       u1260 0393                         u1180 02EE                         u1500 04E0  
                       u2060 00AE                         u1421 043E                         u1261 0392  
                       u1181 02ED                         u1501 04DF                         u2061 00AD  
                       u1430 044E                         u1350 03F3                         u1190 02F4  
                       u1510 04E6                         u2070 00B9                         u1351 03F2  
                       u1191 02F3                         u1511 04E5                         u1095 0141  
                       u2071 00B8                         u1440 046B                         u1520 04EB  
                       u2080 00E5                         u1441 046A                         u1345 03E8  
                       u1601 05EA                         u1521 04EA                         u2081 00E4  
                       u1450 0488                         u1370 0407                         u1290 03A9  
                       u1602 05F1                         u1530 0502                         u1451 0487  
                       u1435 0449                         u1371 0406                         u1291 03A8  
                       u1275 0395                         u1611 0615                         u1603 05F8  
                       u1531 0501                         u1460 049D                         u1380 040C  
                       u1612 061C                         u1540 0507                         u1461 049C  
                       u1445 0467                         u1381 040B                         u1365 03F6  
                       u1285 039E                         u1613 0623                         u1541 0506  
                       u1390 0420                         u1470 04B8                         u1455 0484  
                       u1391 041F                         u1631 0649                         u1551 0554  
                       u1471 04B7                         u1800 0788                         u1720 072D  
                       u1632 0650                         u1552 055B                         u1480 04BE  
                       u1721 072C                         u1705 070B                         u1641 0674  
                       u1633 0657                         u1625 0625                         u1561 0570  
                       u1553 0562                         u1481 04BD                         u1810 07A5  
                       u1642 067B                         u1562 0577                         u1490 04C3  
                       u1811 07A4                         u1715 0722                         u1651 069F  
                       u1643 0682                         u1571 059A                         u1563 057E  
                       u1491 04C2                         u1820 07BF                         u1740 0741  
                       u1660 06C7                         u1652 06A6                         u1572 05A1  
                       u1900 0293                         u1821 07BE                         u1805 0783  
                       u1741 0740                         u1653 06AD                         u1581 05B6  
                       u1573 05A8                         u1901 0292                         u1830 07DB  
                       u1750 0746                         u1582 05BD                         u1831 07DA  
                       u1815 07A1                         u1751 0745                         u1735 0730  
                       u1671 06D3                         u1583 05C4                         u1760 075A  
                       u1680 06EF                         u1672 06DA                         u1920 02A3  
                       u1840 0232                         u1825 07BB                         u1761 0759  
                       u1673 06E1                         u1665 06C2                         u1921 02A2  
                       u1841 0231                         u1770 0761                         u1930 02A9  
                       u1850 0236                         u1771 0760                         u1691 06FB  
                       u1595 05C6                         u1931 02A8                         u1915 0298  
                       u1851 0235                         u1780 0767                         u1692 0702  
                       u1940 02AD                         u1860 0256                         u1781 0766  
                       u1693 0709                         u1685 06EA                         u1941 02AC  
                       u1861 0255                         u1790 0779                         u1950 02C2  
                       u1791 0778                         u1960 02D2                         u1880 0273  
                       u1961 02D1                         u1881 0272                         u1970 02D6  
                       u1971 02D5                         u1955 02BD                         u1875 0265  
                       u1990 00FC                         u1895 0285                         u1991 00FB  
                       u1985 0222                         _main 00BD                         btemp 007E  
                       start 0000              ___fldiv@new_exp 0032                ___fltol@sign1 005C  
                      ?_main 0070              __end_of___fldiv 04AA              __end_of___flmul 07EC  
            __end_of___fltol 019A                 ?_init_config 0070                        _PORTB 0006  
                      _PORTD 0008                        _TRISB 0086                        _TRISD 0088  
                      btemp0 007E                        btemp1 007F                        main@i 006A  
                      status 0003                        wtemp0 007E              __initialization 07EC  
               __end_of_main 00E9                       ??_main 007E        pwm_control@duty_cycle 006E  
                     _CCPR1L 0015                       _TMR2ON 0092                       _TRISC2 043A  
           __end_of___xxtofl 02E0  __end_of_init_digital_keypad 004E              pwm_control@wait 00A0  
                  ??___fldiv 0028                    ??___flmul 0042                    ??___fltol 0058  
           __end_of_init_pwm 005B                       ltemp0a 0080                       ttemp0a 007F  
                     wtemp0a 007F                 ___xxtofl@arg 007A                 ___xxtofl@exp 0079  
               ___xxtofl@val 0070      __end_of__initialization 07FC                   ___fltol@f1 0054  
             __pcstackCOMMON 0070                 ?_pwm_control 0070                 __pidataBANK0 0046  
           _set_pwm_duty$677 0062                   __pbssBANK1 00A0            __end_of__Umul8_16 0093  
                 __pmaintext 00BD                      _CCP1CON 0017                      _T2CKPS0 0090  
                    _T2CKPS1 0091  __end_of_read_digital_keypad 00BD                    ?___xxtofl 0070  
                  ?_init_pwm 0070                      ___fldiv 02E0                      ___flmul 04AA  
                    ___fltol 0124                      __ptext1 0093                      __ptext2 00E9  
                    __ptext3 019A                      __ptext4 022C                      __ptext5 0124  
                    __ptext6 04AA                      __ptext7 006C                      __ptext8 02E0  
                    __ptext9 005B                ?_set_pwm_duty 0070                   ??___xxtofl 0074  
                    main@key 006C         end_of_initialization 07FC                   ??_init_pwm 0070  
             ??_set_pwm_duty 005E                ___xxtofl@sign 0078                  ___fldiv@grs 0034  
                ___fldiv@rem 002D                  ___flmul@grs 0048          start_initialization 07EC  
             pwm_control@key 0069                    __Umul8_16 006C                  __pdataBANK0 006D  
              ??_init_config 0070                    ___fldiv@a 0020                    ___fldiv@b 0024  
                  ___flmul@a 003E                    ___flmul@b 003A                    ___latbits 0002  
              __pcstackBANK0 0020         __end_of_set_pwm_duty 022C                     ?___fldiv 0020  
                   ?___flmul 003A                     ?___fltol 0054                   ?__Umul8_16 0070  
        __end_of_init_config 006C             set_pwm_duty@duty 0066          _init_digital_keypad 0048  
              ??_pwm_control 007E                  ??__Umul8_16 0072         ?_init_digital_keypad 0070  
                _init_config 005B                     ___xxtofl 022C                     __ptext10 004E  
                   __ptext11 0048                     _init_pwm 004E      read_digital_keypad@mode 0071  
    read_digital_keypad@once 006D        ??_init_digital_keypad 0070          __end_of_pwm_control 0124  
               _set_pwm_duty 019A          _read_digital_keypad 0093          set_pwm_duty@reg_val 0067  
     __Umul8_16@multiplicand 0070         ?_read_digital_keypad 0070         __Umul8_16@multiplier 0078  
          __Umul8_16@product 0074  
